
processador.elf:     file format elf32-littlenios2
processador.elf
architecture: nios2:r1, flags 0x00000112:
EXEC_P, HAS_SYMS, D_PAGED
start address 0x08210230

Program Header:
    LOAD off    0x00001000 vaddr 0x08210000 paddr 0x08210000 align 2**12
         filesz 0x00000020 memsz 0x00000020 flags r-x
    LOAD off    0x00001020 vaddr 0x08210020 paddr 0x08210020 align 2**12
         filesz 0x0000269c memsz 0x0000269c flags r-x
    LOAD off    0x000036bc vaddr 0x082126bc paddr 0x08212cac align 2**12
         filesz 0x000005f0 memsz 0x000005f0 flags rw-
    LOAD off    0x0000429c vaddr 0x0821329c paddr 0x0821329c align 2**12
         filesz 0x00000000 memsz 0x0000012c flags rw-

Sections:
Idx Name          Size      VMA       LMA       File off  Algn
  0 .entry        00000020  08210000  08210000  00001000  2**5
                  CONTENTS, ALLOC, LOAD, READONLY, CODE
  1 .exceptions   00000210  08210020  08210020  00001020  2**2
                  CONTENTS, ALLOC, LOAD, READONLY, CODE
  2 .text         0000247c  08210230  08210230  00001230  2**2
                  CONTENTS, ALLOC, LOAD, READONLY, CODE
  3 .rodata       00000010  082126ac  082126ac  000036ac  2**2
                  CONTENTS, ALLOC, LOAD, READONLY, DATA
  4 .rwdata       000005f0  082126bc  08212cac  000036bc  2**2
                  CONTENTS, ALLOC, LOAD, DATA, SMALL_DATA
  5 .bss          0000012c  0821329c  0821329c  0000429c  2**2
                  ALLOC, SMALL_DATA
  6 .ram_data     00000000  082133c8  082133c8  00003cac  2**0
                  CONTENTS
  7 .comment      00000023  00000000  00000000  00003cac  2**0
                  CONTENTS, READONLY
  8 .debug_aranges 00000440  00000000  00000000  00003cd0  2**3
                  CONTENTS, READONLY, DEBUGGING
  9 .debug_info   000059f1  00000000  00000000  00004110  2**0
                  CONTENTS, READONLY, DEBUGGING
 10 .debug_abbrev 00001b1b  00000000  00000000  00009b01  2**0
                  CONTENTS, READONLY, DEBUGGING
 11 .debug_line   00001d8b  00000000  00000000  0000b61c  2**0
                  CONTENTS, READONLY, DEBUGGING
 12 .debug_frame  00000834  00000000  00000000  0000d3a8  2**2
                  CONTENTS, READONLY, DEBUGGING
 13 .debug_str    00001a88  00000000  00000000  0000dbdc  2**0
                  CONTENTS, READONLY, DEBUGGING
 14 .debug_loc    00000a6e  00000000  00000000  0000f664  2**0
                  CONTENTS, READONLY, DEBUGGING
 15 .debug_alt_sim_info 00000040  00000000  00000000  000100d4  2**2
                  CONTENTS, READONLY, DEBUGGING
 16 .debug_ranges 000001a8  00000000  00000000  00010118  2**3
                  CONTENTS, READONLY, DEBUGGING
 17 .thread_model 00000003  00000000  00000000  00011956  2**0
                  CONTENTS, READONLY
 18 .cpu          00000009  00000000  00000000  00011959  2**0
                  CONTENTS, READONLY
 19 .qsys         00000001  00000000  00000000  00011962  2**0
                  CONTENTS, READONLY
 20 .simulation_enabled 00000001  00000000  00000000  00011963  2**0
                  CONTENTS, READONLY
 21 .stderr_dev   00000004  00000000  00000000  00011964  2**0
                  CONTENTS, READONLY
 22 .stdin_dev    00000004  00000000  00000000  00011968  2**0
                  CONTENTS, READONLY
 23 .stdout_dev   00000004  00000000  00000000  0001196c  2**0
                  CONTENTS, READONLY
 24 .sopc_system_name 0000000c  00000000  00000000  00011970  2**0
                  CONTENTS, READONLY
 25 .quartus_project_dir 00000046  00000000  00000000  0001197c  2**0
                  CONTENTS, READONLY
 26 .jdi          00006f84  00000000  00000000  000119c2  2**0
                  CONTENTS, READONLY
 27 .sopcinfo     00049c15  00000000  00000000  00018946  2**0
                  CONTENTS, READONLY
SYMBOL TABLE:
08210000 l    d  .entry	00000000 .entry
08210020 l    d  .exceptions	00000000 .exceptions
08210230 l    d  .text	00000000 .text
082126ac l    d  .rodata	00000000 .rodata
082126bc l    d  .rwdata	00000000 .rwdata
0821329c l    d  .bss	00000000 .bss
082133c8 l    d  .ram_data	00000000 .ram_data
00000000 l    d  .comment	00000000 .comment
00000000 l    d  .debug_aranges	00000000 .debug_aranges
00000000 l    d  .debug_info	00000000 .debug_info
00000000 l    d  .debug_abbrev	00000000 .debug_abbrev
00000000 l    d  .debug_line	00000000 .debug_line
00000000 l    d  .debug_frame	00000000 .debug_frame
00000000 l    d  .debug_str	00000000 .debug_str
00000000 l    d  .debug_loc	00000000 .debug_loc
00000000 l    d  .debug_alt_sim_info	00000000 .debug_alt_sim_info
00000000 l    d  .debug_ranges	00000000 .debug_ranges
00000000 l    df *ABS*	00000000 ../processador_bsp//obj/HAL/src/crt0.o
08210268 l       .text	00000000 alt_after_alt_main
00000000 l    df *ABS*	00000000 alt_irq_handler.c
00000000 l    df *ABS*	00000000 alt_instruction_exception_entry.c
00000000 l    df *ABS*	00000000 hello_world.c
00000000 l    df *ABS*	00000000 lib2-divmod.c
00000000 l    df *ABS*	00000000 rand.c
00000000 l    df *ABS*	00000000 impure.c
082126bc l     O .rwdata	00000424 impure_data
00000000 l    df *ABS*	00000000 libgcc2.c
00000000 l    df *ABS*	00000000 lib2-mul.c
00000000 l    df *ABS*	00000000 alt_irq_register.c
00000000 l    df *ABS*	00000000 alt_irq_vars.c
00000000 l    df *ABS*	00000000 alt_load.c
08211ce4 l     F .text	00000068 alt_load_section
00000000 l    df *ABS*	00000000 alt_main.c
00000000 l    df *ABS*	00000000 alt_usleep.c
00000000 l    df *ABS*	00000000 alt_sys_init.c
00000000 l    df *ABS*	00000000 alt_busy_sleep.c
00000000 l    df *ABS*	00000000 alt_close.c
08212010 l     F .text	0000003c alt_get_errno
00000000 l    df *ABS*	00000000 alt_dcache_flush_all.c
00000000 l    df *ABS*	00000000 alt_dev.c
08212144 l     F .text	0000002c alt_dev_null_write
00000000 l    df *ABS*	00000000 alt_do_ctors.c
00000000 l    df *ABS*	00000000 alt_do_dtors.c
00000000 l    df *ABS*	00000000 alt_errno.c
00000000 l    df *ABS*	00000000 alt_icache_flush_all.c
00000000 l    df *ABS*	00000000 alt_release_fd.c
00000000 l    df *ABS*	00000000 altera_nios2_gen2_irq.c
00000000 l    df *ABS*	00000000 atexit.c
00000000 l    df *ABS*	00000000 exit.c
00000000 l    df *ABS*	00000000 int_errno.c
00000000 l    df *ABS*	00000000 __atexit.c
00000000 l    df *ABS*	00000000 __call_atexit.c
00000000 l    df *ABS*	00000000 alt_exit.c
082132c0 g     O .bss	00000004 alt_instruction_exception_handler
08211dd0 g     F .text	00000060 alt_main
082132c8 g     O .bss	00000100 alt_irq
08212cac g       *ABS*	00000000 __flash_rwdata_start
082132a0 g     O .bss	00000004 prev_head_y
08210000 g       *ABS*	00000000 __alt_mem_ram_data
082122d4 g     F .text	00000024 altera_nios2_gen2_irq_init
08210000 g     F .entry	0000000c __reset
08210020 g       *ABS*	00000000 __flash_exceptions_start
082132c4 g     O .bss	00000004 errno
082132b8 g     O .bss	00000004 alt_argv
0821ac88 g       *ABS*	00000000 _gp
08211e30 g     F .text	00000030 usleep
08210464 g     F .text	00000040 is_pressed
08212b08 g     O .rwdata	00000180 alt_fd_list
08210df8 g     F .text	0000003c new_frame_isr
082126ac g       *ABS*	00000000 __DTOR_END__
082122f8 g     F .text	0000009c alt_exception_cause_generated_bad_addr
082118f8 g     F .text	00000064 .hidden __udivsi3
08210bd0 g     F .text	00000228 handle_burguer_sprite
08212ca4 g     O .rwdata	00000004 alt_max_fd
08211b64 g     F .text	00000180 alt_irq_register
08212c88 g     O .rwdata	00000004 _global_impure_ptr
082133c8 g       *ABS*	00000000 __bss_end
082132b0 g     O .bss	00000004 alt_irq_active
082100fc g     F .exceptions	000000d4 alt_irq_handler
08212ae0 g     O .rwdata	00000028 alt_dev_null
08210a98 g     F .text	00000138 deliver_food
08212124 g     F .text	00000020 alt_dcache_flush_all
08212cac g       *ABS*	00000000 __ram_rwdata_end
08212c9c g     O .rwdata	00000008 alt_dev_list
082126bc g       *ABS*	00000000 __ram_rodata_end
0821195c g     F .text	00000058 .hidden __umodsi3
082133c8 g       *ABS*	00000000 end
082101d0 g     F .exceptions	00000060 alt_instruction_exception_entry
082126ac g       *ABS*	00000000 __CTOR_LIST__
08220000 g       *ABS*	00000000 __alt_stack_pointer
082124f8 g     F .text	00000180 __call_exitprocs
08210230 g     F .text	0000003c _start
082119cc g     F .text	00000064 rand
08211e98 g     F .text	00000020 alt_sys_init
082123e0 g     F .text	00000118 __register_exitproc
08211b3c g     F .text	00000028 .hidden __mulsi3
082126bc g       *ABS*	00000000 __ram_rwdata_start
082126ac g       *ABS*	00000000 __ram_rodata_start
08210564 g     F .text	00000078 check_colision_sprites
08211eb8 g     F .text	00000158 alt_busy_sleep
082133c8 g       *ABS*	00000000 __alt_stack_base
0821026c g     F .text	00000054 build_sprite_reg
0821329c g       *ABS*	00000000 __bss_start
08210e90 g     F .text	00000970 main
082132bc g     O .bss	00000004 alt_envp
082119b4 g     F .text	00000018 srand
082106f4 g     F .text	00000098 _helper_player_sprite
08212ca8 g     O .rwdata	00000004 alt_errno
08211800 g     F .text	00000084 .hidden __divsi3
082126ac g       *ABS*	00000000 __CTOR_END__
082126ac g       *ABS*	00000000 __flash_rodata_start
082126ac g       *ABS*	00000000 __DTOR_LIST__
08210e34 g     F .text	0000005c init_pio_interrupt
082102c0 g     F .text	000001a4 send_sprites_to_composer
08211e60 g     F .text	00000038 alt_irq_init
08212250 g     F .text	00000084 alt_release_fd
08212394 g     F .text	00000014 atexit
082132a4 g     O .bss	00000004 prev_body_x
08212c8c g     O .rwdata	00000004 _impure_ptr
082132b4 g     O .bss	00000004 alt_argc
082121d0 g     F .text	00000060 _do_dtors
08210020 g       .exceptions	00000000 alt_irq_entry
082132ac g     O .bss	00000004 frame_flag
08212c94 g     O .rwdata	00000008 alt_fs_list
082104a4 g     F .text	000000c0 check_colision_objects
0821329c g     O .bss	00000004 prev_head_x
08210020 g       *ABS*	00000000 __ram_exceptions_start
082132a8 g     O .bss	00000004 prev_body_y
08212cac g       *ABS*	00000000 _edata
082133c8 g       *ABS*	00000000 _end
08210230 g       *ABS*	00000000 __ram_exceptions_end
082123a8 g     F .text	00000038 exit
08211884 g     F .text	00000074 .hidden __modsi3
08220000 g       *ABS*	00000000 __alt_data_end
08210020 g     F .exceptions	00000000 alt_exception
0821078c g     F .text	00000284 walk_player
08212678 g     F .text	00000034 _exit
08211a30 g     F .text	0000010c .hidden __muldi3
082106ac g     F .text	00000048 load_background
08212230 g     F .text	00000020 alt_icache_flush_all
082105dc g     F .text	000000d0 move_sprite
08212c90 g     O .rwdata	00000004 alt_priority_mask
08212170 g     F .text	00000060 _do_ctors
0821204c g     F .text	000000d8 close
08210a10 g     F .text	00000088 get_burguer_component
08211d4c g     F .text	00000084 alt_load



Disassembly of section .entry:

08210000 <__reset>:
 8210000:	00420874 	movhi	at,2081
 8210004:	08408c14 	ori	at,at,560
 8210008:	0800683a 	jmp	at
	...

Disassembly of section .exceptions:

08210020 <alt_exception>:
 8210020:	deffed04 	addi	sp,sp,-76
 8210024:	dfc00015 	stw	ra,0(sp)
 8210028:	d8400215 	stw	at,8(sp)
 821002c:	d8800315 	stw	r2,12(sp)
 8210030:	d8c00415 	stw	r3,16(sp)
 8210034:	d9000515 	stw	r4,20(sp)
 8210038:	d9400615 	stw	r5,24(sp)
 821003c:	d9800715 	stw	r6,28(sp)
 8210040:	d9c00815 	stw	r7,32(sp)
 8210044:	000b307a 	rdctl	r5,estatus
 8210048:	da000915 	stw	r8,36(sp)
 821004c:	da400a15 	stw	r9,40(sp)
 8210050:	da800b15 	stw	r10,44(sp)
 8210054:	dac00c15 	stw	r11,48(sp)
 8210058:	db000d15 	stw	r12,52(sp)
 821005c:	db400e15 	stw	r13,56(sp)
 8210060:	db800f15 	stw	r14,60(sp)
 8210064:	dbc01015 	stw	r15,64(sp)
 8210068:	d9401115 	stw	r5,68(sp)
 821006c:	ebffff04 	addi	r15,ea,-4
 8210070:	dbc01215 	stw	r15,72(sp)
 8210074:	0009313a 	rdctl	r4,ipending
 8210078:	2880004c 	andi	r2,r5,1
 821007c:	10000326 	beq	r2,zero,821008c <alt_exception+0x6c>
 8210080:	20000226 	beq	r4,zero,821008c <alt_exception+0x6c>
 8210084:	82100fc0 	call	82100fc <alt_irq_handler>
 8210088:	00000706 	br	82100a8 <alt_exception+0x88>
 821008c:	df401215 	stw	ea,72(sp)
 8210090:	e8bfff17 	ldw	r2,-4(ea)
 8210094:	e93fff04 	addi	r4,ea,-4
 8210098:	82101d00 	call	82101d0 <alt_instruction_exception_entry>
 821009c:	1000021e 	bne	r2,zero,82100a8 <alt_exception+0x88>
 82100a0:	ebffff04 	addi	r15,ea,-4
 82100a4:	dbc01215 	stw	r15,72(sp)
 82100a8:	d9401117 	ldw	r5,68(sp)
 82100ac:	df401217 	ldw	ea,72(sp)
 82100b0:	dfc00017 	ldw	ra,0(sp)
 82100b4:	2801707a 	wrctl	estatus,r5
 82100b8:	d8400217 	ldw	at,8(sp)
 82100bc:	d8800317 	ldw	r2,12(sp)
 82100c0:	d8c00417 	ldw	r3,16(sp)
 82100c4:	d9000517 	ldw	r4,20(sp)
 82100c8:	d9400617 	ldw	r5,24(sp)
 82100cc:	d9800717 	ldw	r6,28(sp)
 82100d0:	d9c00817 	ldw	r7,32(sp)
 82100d4:	da000917 	ldw	r8,36(sp)
 82100d8:	da400a17 	ldw	r9,40(sp)
 82100dc:	da800b17 	ldw	r10,44(sp)
 82100e0:	dac00c17 	ldw	r11,48(sp)
 82100e4:	db000d17 	ldw	r12,52(sp)
 82100e8:	db400e17 	ldw	r13,56(sp)
 82100ec:	db800f17 	ldw	r14,60(sp)
 82100f0:	dbc01017 	ldw	r15,64(sp)
 82100f4:	dec01304 	addi	sp,sp,76
 82100f8:	ef80083a 	eret

082100fc <alt_irq_handler>:
 82100fc:	defff904 	addi	sp,sp,-28
 8210100:	dfc00615 	stw	ra,24(sp)
 8210104:	df000515 	stw	fp,20(sp)
 8210108:	df000504 	addi	fp,sp,20
 821010c:	0001883a 	nop
 8210110:	0005313a 	rdctl	r2,ipending
 8210114:	e0bffe15 	stw	r2,-8(fp)
 8210118:	e0bffe17 	ldw	r2,-8(fp)
 821011c:	e0bffb15 	stw	r2,-20(fp)
 8210120:	e03ffd15 	stw	zero,-12(fp)
 8210124:	00800044 	movi	r2,1
 8210128:	e0bffc15 	stw	r2,-16(fp)
 821012c:	e0fffb17 	ldw	r3,-20(fp)
 8210130:	e0bffc17 	ldw	r2,-16(fp)
 8210134:	1884703a 	and	r2,r3,r2
 8210138:	10001426 	beq	r2,zero,821018c <alt_irq_handler+0x90>
 821013c:	00820874 	movhi	r2,2081
 8210140:	108cb204 	addi	r2,r2,13000
 8210144:	e0fffd17 	ldw	r3,-12(fp)
 8210148:	180690fa 	slli	r3,r3,3
 821014c:	10c5883a 	add	r2,r2,r3
 8210150:	10c00017 	ldw	r3,0(r2)
 8210154:	00820874 	movhi	r2,2081
 8210158:	108cb204 	addi	r2,r2,13000
 821015c:	e13ffd17 	ldw	r4,-12(fp)
 8210160:	200890fa 	slli	r4,r4,3
 8210164:	1105883a 	add	r2,r2,r4
 8210168:	10800104 	addi	r2,r2,4
 821016c:	10800017 	ldw	r2,0(r2)
 8210170:	1009883a 	mov	r4,r2
 8210174:	183ee83a 	callr	r3
 8210178:	0001883a 	nop
 821017c:	0005313a 	rdctl	r2,ipending
 8210180:	e0bfff15 	stw	r2,-4(fp)
 8210184:	e0bfff17 	ldw	r2,-4(fp)
 8210188:	00000706 	br	82101a8 <alt_irq_handler+0xac>
 821018c:	e0bffc17 	ldw	r2,-16(fp)
 8210190:	1085883a 	add	r2,r2,r2
 8210194:	e0bffc15 	stw	r2,-16(fp)
 8210198:	e0bffd17 	ldw	r2,-12(fp)
 821019c:	10800044 	addi	r2,r2,1
 82101a0:	e0bffd15 	stw	r2,-12(fp)
 82101a4:	003fe106 	br	821012c <__alt_data_end+0xffff012c>
 82101a8:	e0bffb15 	stw	r2,-20(fp)
 82101ac:	e0bffb17 	ldw	r2,-20(fp)
 82101b0:	103fdb1e 	bne	r2,zero,8210120 <__alt_data_end+0xffff0120>
 82101b4:	0001883a 	nop
 82101b8:	0001883a 	nop
 82101bc:	e037883a 	mov	sp,fp
 82101c0:	dfc00117 	ldw	ra,4(sp)
 82101c4:	df000017 	ldw	fp,0(sp)
 82101c8:	dec00204 	addi	sp,sp,8
 82101cc:	f800283a 	ret

082101d0 <alt_instruction_exception_entry>:
 82101d0:	defffb04 	addi	sp,sp,-20
 82101d4:	dfc00415 	stw	ra,16(sp)
 82101d8:	df000315 	stw	fp,12(sp)
 82101dc:	df000304 	addi	fp,sp,12
 82101e0:	e13fff15 	stw	r4,-4(fp)
 82101e4:	00bfffc4 	movi	r2,-1
 82101e8:	e0bffd15 	stw	r2,-12(fp)
 82101ec:	e03ffe15 	stw	zero,-8(fp)
 82101f0:	d0a18e17 	ldw	r2,-31176(gp)
 82101f4:	10000726 	beq	r2,zero,8210214 <alt_instruction_exception_entry+0x44>
 82101f8:	d0a18e17 	ldw	r2,-31176(gp)
 82101fc:	e0fffd17 	ldw	r3,-12(fp)
 8210200:	e1bffe17 	ldw	r6,-8(fp)
 8210204:	e17fff17 	ldw	r5,-4(fp)
 8210208:	1809883a 	mov	r4,r3
 821020c:	103ee83a 	callr	r2
 8210210:	00000206 	br	821021c <alt_instruction_exception_entry+0x4c>
 8210214:	003da03a 	break	0
 8210218:	0005883a 	mov	r2,zero
 821021c:	e037883a 	mov	sp,fp
 8210220:	dfc00117 	ldw	ra,4(sp)
 8210224:	df000017 	ldw	fp,0(sp)
 8210228:	dec00204 	addi	sp,sp,8
 821022c:	f800283a 	ret

Disassembly of section .text:

08210230 <_start>:
 8210230:	06c208b4 	movhi	sp,2082
 8210234:	dec00014 	ori	sp,sp,0
 8210238:	06820874 	movhi	gp,2081
 821023c:	d6ab2214 	ori	gp,gp,44168
 8210240:	00820874 	movhi	r2,2081
 8210244:	108ca714 	ori	r2,r2,12956
 8210248:	00c20874 	movhi	r3,2081
 821024c:	18ccf214 	ori	r3,r3,13256
 8210250:	10c00326 	beq	r2,r3,8210260 <_start+0x30>
 8210254:	10000015 	stw	zero,0(r2)
 8210258:	10800104 	addi	r2,r2,4
 821025c:	10fffd36 	bltu	r2,r3,8210254 <__alt_data_end+0xffff0254>
 8210260:	8211d4c0 	call	8211d4c <alt_load>
 8210264:	8211dd00 	call	8211dd0 <alt_main>

08210268 <alt_after_alt_main>:
 8210268:	003fff06 	br	8210268 <__alt_data_end+0xffff0268>

0821026c <build_sprite_reg>:
int prev_head_y = 0;
int prev_body_x = 0;
int prev_body_y = 0;

// Monta o registro 32 bits no formato esperado pelo Verilog
uint32_t build_sprite_reg(uint8_t tile_id, uint16_t pos_x, uint16_t pos_y) {
 821026c:	defffc04 	addi	sp,sp,-16
 8210270:	df000315 	stw	fp,12(sp)
 8210274:	df000304 	addi	fp,sp,12
 8210278:	2807883a 	mov	r3,r5
 821027c:	3005883a 	mov	r2,r6
 8210280:	e13ffd05 	stb	r4,-12(fp)
 8210284:	e0fffe0d 	sth	r3,-8(fp)
 8210288:	e0bfff0d 	sth	r2,-4(fp)
	return ((uint32_t) (tile_id & 0x1FF) << 23) |  // 9 bits
 821028c:	e0bffd03 	ldbu	r2,-12(fp)
 8210290:	100695fa 	slli	r3,r2,23
			((uint32_t) (pos_x & 0x1FFF) << 10) |  // 13 bits
 8210294:	e0bffe0b 	ldhu	r2,-8(fp)
 8210298:	1087ffcc 	andi	r2,r2,8191
 821029c:	100492ba 	slli	r2,r2,10
int prev_body_x = 0;
int prev_body_y = 0;

// Monta o registro 32 bits no formato esperado pelo Verilog
uint32_t build_sprite_reg(uint8_t tile_id, uint16_t pos_x, uint16_t pos_y) {
	return ((uint32_t) (tile_id & 0x1FF) << 23) |  // 9 bits
 82102a0:	1886b03a 	or	r3,r3,r2
			((uint32_t) (pos_x & 0x1FFF) << 10) |  // 13 bits
			((uint32_t) (pos_y & 0x3FF));          // 10 bits
 82102a4:	e0bfff0b 	ldhu	r2,-4(fp)
 82102a8:	1080ffcc 	andi	r2,r2,1023
int prev_body_x = 0;
int prev_body_y = 0;

// Monta o registro 32 bits no formato esperado pelo Verilog
uint32_t build_sprite_reg(uint8_t tile_id, uint16_t pos_x, uint16_t pos_y) {
	return ((uint32_t) (tile_id & 0x1FF) << 23) |  // 9 bits
 82102ac:	1884b03a 	or	r2,r3,r2
			((uint32_t) (pos_x & 0x1FFF) << 10) |  // 13 bits
			((uint32_t) (pos_y & 0x3FF));          // 10 bits
}
 82102b0:	e037883a 	mov	sp,fp
 82102b4:	df000017 	ldw	fp,0(sp)
 82102b8:	dec00104 	addi	sp,sp,4
 82102bc:	f800283a 	ret

082102c0 <send_sprites_to_composer>:

// Envia os sprites para o sprite_composer
void send_sprites_to_composer(Sprite* sprites[], int count) {
 82102c0:	defffa04 	addi	sp,sp,-24
 82102c4:	dfc00515 	stw	ra,20(sp)
 82102c8:	df000415 	stw	fp,16(sp)
 82102cc:	df000404 	addi	fp,sp,16
 82102d0:	e13ffe15 	stw	r4,-8(fp)
 82102d4:	e17fff15 	stw	r5,-4(fp)
	int i;
	uint32_t reg;

	// Envia os sprites ativos
	for (i = 0; i < count; i++) {
 82102d8:	e03ffc15 	stw	zero,-16(fp)
 82102dc:	00003e06 	br	82103d8 <send_sprites_to_composer+0x118>
		if (sprites[i] != NULL) {
 82102e0:	e0bffc17 	ldw	r2,-16(fp)
 82102e4:	1085883a 	add	r2,r2,r2
 82102e8:	1085883a 	add	r2,r2,r2
 82102ec:	1007883a 	mov	r3,r2
 82102f0:	e0bffe17 	ldw	r2,-8(fp)
 82102f4:	10c5883a 	add	r2,r2,r3
 82102f8:	10800017 	ldw	r2,0(r2)
 82102fc:	10002a26 	beq	r2,zero,82103a8 <send_sprites_to_composer+0xe8>
			reg = build_sprite_reg(sprites[i]->tile_id, sprites[i]->pos_x, sprites[i]->pos_y);
 8210300:	e0bffc17 	ldw	r2,-16(fp)
 8210304:	1085883a 	add	r2,r2,r2
 8210308:	1085883a 	add	r2,r2,r2
 821030c:	1007883a 	mov	r3,r2
 8210310:	e0bffe17 	ldw	r2,-8(fp)
 8210314:	10c5883a 	add	r2,r2,r3
 8210318:	10800017 	ldw	r2,0(r2)
 821031c:	10800003 	ldbu	r2,0(r2)
 8210320:	10c03fcc 	andi	r3,r2,255
 8210324:	e0bffc17 	ldw	r2,-16(fp)
 8210328:	1085883a 	add	r2,r2,r2
 821032c:	1085883a 	add	r2,r2,r2
 8210330:	1009883a 	mov	r4,r2
 8210334:	e0bffe17 	ldw	r2,-8(fp)
 8210338:	1105883a 	add	r2,r2,r4
 821033c:	10800017 	ldw	r2,0(r2)
 8210340:	1080008b 	ldhu	r2,2(r2)
 8210344:	113fffcc 	andi	r4,r2,65535
 8210348:	e0bffc17 	ldw	r2,-16(fp)
 821034c:	1085883a 	add	r2,r2,r2
 8210350:	1085883a 	add	r2,r2,r2
 8210354:	100b883a 	mov	r5,r2
 8210358:	e0bffe17 	ldw	r2,-8(fp)
 821035c:	1145883a 	add	r2,r2,r5
 8210360:	10800017 	ldw	r2,0(r2)
 8210364:	1080010b 	ldhu	r2,4(r2)
 8210368:	10bfffcc 	andi	r2,r2,65535
 821036c:	100d883a 	mov	r6,r2
 8210370:	200b883a 	mov	r5,r4
 8210374:	1809883a 	mov	r4,r3
 8210378:	821026c0 	call	821026c <build_sprite_reg>
 821037c:	e0bffd15 	stw	r2,-12(fp)
			IOWR_32DIRECT(COMPOSER_BASE, i * 4, reg);
 8210380:	e0bffc17 	ldw	r2,-16(fp)
 8210384:	1085883a 	add	r2,r2,r2
 8210388:	1085883a 	add	r2,r2,r2
 821038c:	1007883a 	mov	r3,r2
 8210390:	00820834 	movhi	r2,2080
 8210394:	10810004 	addi	r2,r2,1024
 8210398:	1885883a 	add	r2,r3,r2
 821039c:	e0fffd17 	ldw	r3,-12(fp)
 82103a0:	10c00035 	stwio	r3,0(r2)
 82103a4:	00000906 	br	82103cc <send_sprites_to_composer+0x10c>
		} else {
			// Se o ponteiro estiver nulo, zera esse registro
			IOWR_32DIRECT(COMPOSER_BASE, i * 4, 0);
 82103a8:	e0bffc17 	ldw	r2,-16(fp)
 82103ac:	1085883a 	add	r2,r2,r2
 82103b0:	1085883a 	add	r2,r2,r2
 82103b4:	1007883a 	mov	r3,r2
 82103b8:	00820834 	movhi	r2,2080
 82103bc:	10810004 	addi	r2,r2,1024
 82103c0:	1885883a 	add	r2,r3,r2
 82103c4:	0007883a 	mov	r3,zero
 82103c8:	10c00035 	stwio	r3,0(r2)
void send_sprites_to_composer(Sprite* sprites[], int count) {
	int i;
	uint32_t reg;

	// Envia os sprites ativos
	for (i = 0; i < count; i++) {
 82103cc:	e0bffc17 	ldw	r2,-16(fp)
 82103d0:	10800044 	addi	r2,r2,1
 82103d4:	e0bffc15 	stw	r2,-16(fp)
 82103d8:	e0fffc17 	ldw	r3,-16(fp)
 82103dc:	e0bfff17 	ldw	r2,-4(fp)
 82103e0:	18bfbf16 	blt	r3,r2,82102e0 <__alt_data_end+0xffff02e0>
			IOWR_32DIRECT(COMPOSER_BASE, i * 4, 0);
		}
	}

	// Zera os registros restantes
	for (i = count; i < MAX_SPRITES; i++) {
 82103e4:	e0bfff17 	ldw	r2,-4(fp)
 82103e8:	e0bffc15 	stw	r2,-16(fp)
 82103ec:	00000c06 	br	8210420 <send_sprites_to_composer+0x160>
		IOWR_32DIRECT(COMPOSER_BASE, i * 4, 0);
 82103f0:	e0bffc17 	ldw	r2,-16(fp)
 82103f4:	1085883a 	add	r2,r2,r2
 82103f8:	1085883a 	add	r2,r2,r2
 82103fc:	1007883a 	mov	r3,r2
 8210400:	00820834 	movhi	r2,2080
 8210404:	10810004 	addi	r2,r2,1024
 8210408:	1885883a 	add	r2,r3,r2
 821040c:	0007883a 	mov	r3,zero
 8210410:	10c00035 	stwio	r3,0(r2)
			IOWR_32DIRECT(COMPOSER_BASE, i * 4, 0);
		}
	}

	// Zera os registros restantes
	for (i = count; i < MAX_SPRITES; i++) {
 8210414:	e0bffc17 	ldw	r2,-16(fp)
 8210418:	10800044 	addi	r2,r2,1
 821041c:	e0bffc15 	stw	r2,-16(fp)
 8210420:	e0bffc17 	ldw	r2,-16(fp)
 8210424:	10800810 	cmplti	r2,r2,32
 8210428:	103ff11e 	bne	r2,zero,82103f0 <__alt_data_end+0xffff03f0>
		IOWR_32DIRECT(COMPOSER_BASE, i * 4, 0);
	}

	// Indica que os dados foram enviados
	IOWR_32DIRECT(COMPOSER_BASE, REG_COMP_OFFSET_X * 4, CAMERA_GAME_POSITION_X);
 821042c:	00c23844 	movi	r3,2273
 8210430:	00820834 	movhi	r2,2080
 8210434:	10812004 	addi	r2,r2,1152
 8210438:	10c00035 	stwio	r3,0(r2)
	IOWR_32DIRECT(COMPOSER_BASE, REG_COMP_OFFSET_Y * 4, CAMERA_GAME_POSITION_Y);
 821043c:	0007883a 	mov	r3,zero
 8210440:	00820834 	movhi	r2,2080
 8210444:	10812104 	addi	r2,r2,1156
 8210448:	10c00035 	stwio	r3,0(r2)
}
 821044c:	0001883a 	nop
 8210450:	e037883a 	mov	sp,fp
 8210454:	dfc00117 	ldw	ra,4(sp)
 8210458:	df000017 	ldw	fp,0(sp)
 821045c:	dec00204 	addi	sp,sp,8
 8210460:	f800283a 	ret

08210464 <is_pressed>:

uint8_t is_pressed(uint32_t btns, int button_index) {
 8210464:	defffd04 	addi	sp,sp,-12
 8210468:	df000215 	stw	fp,8(sp)
 821046c:	df000204 	addi	fp,sp,8
 8210470:	e13ffe15 	stw	r4,-8(fp)
 8210474:	e17fff15 	stw	r5,-4(fp)
//	return (btns >> button_index) & 1;
	return ((btns & (1 << button_index)) != 0);
 8210478:	00c00044 	movi	r3,1
 821047c:	e0bfff17 	ldw	r2,-4(fp)
 8210480:	1884983a 	sll	r2,r3,r2
 8210484:	1007883a 	mov	r3,r2
 8210488:	e0bffe17 	ldw	r2,-8(fp)
 821048c:	1884703a 	and	r2,r3,r2
 8210490:	1004c03a 	cmpne	r2,r2,zero
}
 8210494:	e037883a 	mov	sp,fp
 8210498:	df000017 	ldw	fp,0(sp)
 821049c:	dec00104 	addi	sp,sp,4
 82104a0:	f800283a 	ret

082104a4 <check_colision_objects>:

uint8_t check_colision_objects(int pos_x, int pos_y) {
 82104a4:	defffd04 	addi	sp,sp,-12
 82104a8:	df000215 	stw	fp,8(sp)
 82104ac:	df000204 	addi	fp,sp,8
 82104b0:	e13ffe15 	stw	r4,-8(fp)
 82104b4:	e17fff15 	stw	r5,-4(fp)
	if (((pos_x > BOX_STOVE_POINT_X_1 && pos_x < BOX_STOVE_POINT_X_2)
 82104b8:	e0bffe17 	ldw	r2,-8(fp)
 82104bc:	10828210 	cmplti	r2,r2,2568
 82104c0:	1000091e 	bne	r2,zero,82104e8 <check_colision_objects+0x44>
 82104c4:	e0bffe17 	ldw	r2,-8(fp)
 82104c8:	10828a08 	cmpgei	r2,r2,2600
 82104cc:	1000061e 	bne	r2,zero,82104e8 <check_colision_objects+0x44>
			&& (pos_y > BOX_STOVE_POINT_Y_1 && pos_y < BOX_STOVE_POINT_Y_2))
 82104d0:	e0bfff17 	ldw	r2,-4(fp)
 82104d4:	10805550 	cmplti	r2,r2,341
 82104d8:	1000031e 	bne	r2,zero,82104e8 <check_colision_objects+0x44>
 82104dc:	e0bfff17 	ldw	r2,-4(fp)
 82104e0:	10806410 	cmplti	r2,r2,400
 82104e4:	1000181e 	bne	r2,zero,8210548 <check_colision_objects+0xa4>
			|| ((pos_x > BOX_SINK_POINT_X_1 && pos_x < BOX_SINK_POINT_X_2)
 82104e8:	e0bffe17 	ldw	r2,-8(fp)
 82104ec:	10829cd0 	cmplti	r2,r2,2675
 82104f0:	1000091e 	bne	r2,zero,8210518 <check_colision_objects+0x74>
 82104f4:	e0bffe17 	ldw	r2,-8(fp)
 82104f8:	1082ad48 	cmpgei	r2,r2,2741
 82104fc:	1000061e 	bne	r2,zero,8210518 <check_colision_objects+0x74>
					&& (pos_y > BOX_SINK_POINT_Y_1 && pos_y < BOX_SINK_POINT_Y_2))
 8210500:	e0bfff17 	ldw	r2,-4(fp)
 8210504:	10805c10 	cmplti	r2,r2,368
 8210508:	1000031e 	bne	r2,zero,8210518 <check_colision_objects+0x74>
 821050c:	e0bfff17 	ldw	r2,-4(fp)
 8210510:	10806410 	cmplti	r2,r2,400
 8210514:	10000c1e 	bne	r2,zero,8210548 <check_colision_objects+0xa4>
			|| ((pos_x > BOX_WALL_POINT_X_1 && pos_x < BOX_WALL_POINT_X_2)
 8210518:	e0bffe17 	ldw	r2,-8(fp)
 821051c:	1082ae50 	cmplti	r2,r2,2745
 8210520:	10000b1e 	bne	r2,zero,8210550 <check_colision_objects+0xac>
 8210524:	e0bffe17 	ldw	r2,-8(fp)
 8210528:	1082afc8 	cmpgei	r2,r2,2751
 821052c:	1000081e 	bne	r2,zero,8210550 <check_colision_objects+0xac>
					&& (pos_y > BOX_WALL_POINT_Y_1 && pos_y < BOX_WALL_POINT_Y_2))) {
 8210530:	e0bfff17 	ldw	r2,-4(fp)
 8210534:	10805550 	cmplti	r2,r2,341
 8210538:	1000051e 	bne	r2,zero,8210550 <check_colision_objects+0xac>
 821053c:	e0bfff17 	ldw	r2,-4(fp)
 8210540:	10806408 	cmpgei	r2,r2,400
 8210544:	1000021e 	bne	r2,zero,8210550 <check_colision_objects+0xac>
		return 1;
 8210548:	00800044 	movi	r2,1
 821054c:	00000106 	br	8210554 <check_colision_objects+0xb0>
	}

	return 0;
 8210550:	0005883a 	mov	r2,zero
}
 8210554:	e037883a 	mov	sp,fp
 8210558:	df000017 	ldw	fp,0(sp)
 821055c:	dec00104 	addi	sp,sp,4
 8210560:	f800283a 	ret

08210564 <check_colision_sprites>:

uint8_t check_colision_sprites(Sprite* sprite, int level){
 8210564:	defffb04 	addi	sp,sp,-20
 8210568:	df000415 	stw	fp,16(sp)
 821056c:	df000404 	addi	fp,sp,16
 8210570:	e13ffe15 	stw	r4,-8(fp)
 8210574:	e17fff15 	stw	r5,-4(fp)

		//CHECA SE COLIDIU COM A SPRITE ID 7 LEVEL 24
	int reg = (31 - level) + 36;
 8210578:	00c010c4 	movi	r3,67
 821057c:	e0bfff17 	ldw	r2,-4(fp)
 8210580:	1885c83a 	sub	r2,r3,r2
 8210584:	e0bffc15 	stw	r2,-16(fp)
	//volatile int result = IORD_32DIRECT(COMPOSER_BASE, 60 * 4); //60 - 36 = reg[31] level 24 = Id 7
	volatile int result = IORD_32DIRECT(COMPOSER_BASE, reg * 4);  // reg = (31 - level(nios)) + 36
 8210588:	e0bffc17 	ldw	r2,-16(fp)
 821058c:	1085883a 	add	r2,r2,r2
 8210590:	1085883a 	add	r2,r2,r2
 8210594:	1007883a 	mov	r3,r2
 8210598:	00820834 	movhi	r2,2080
 821059c:	10810004 	addi	r2,r2,1024
 82105a0:	1885883a 	add	r2,r3,r2
 82105a4:	10800037 	ldwio	r2,0(r2)
 82105a8:	e0bffd15 	stw	r2,-12(fp)

	if ((result & (1 << 31)) || (result & (1 << 30))  ) { //checa se colidiu com sprite do corpo e cabeça level 31 e level 30
 82105ac:	e0bffd17 	ldw	r2,-12(fp)
 82105b0:	10000316 	blt	r2,zero,82105c0 <check_colision_sprites+0x5c>
 82105b4:	e0bffd17 	ldw	r2,-12(fp)
 82105b8:	1090002c 	andhi	r2,r2,16384
 82105bc:	10000226 	beq	r2,zero,82105c8 <check_colision_sprites+0x64>
	        return 1;
 82105c0:	00800044 	movi	r2,1
 82105c4:	00000106 	br	82105cc <check_colision_sprites+0x68>
	}
	return 0;
 82105c8:	0005883a 	mov	r2,zero

}
 82105cc:	e037883a 	mov	sp,fp
 82105d0:	df000017 	ldw	fp,0(sp)
 82105d4:	dec00104 	addi	sp,sp,4
 82105d8:	f800283a 	ret

082105dc <move_sprite>:

int move_sprite(Sprite* sprite, int amount_x, int ref_x, int amount_y, int ref_y) {
 82105dc:	defff904 	addi	sp,sp,-28
 82105e0:	df000615 	stw	fp,24(sp)
 82105e4:	df000604 	addi	fp,sp,24
 82105e8:	e13ffc15 	stw	r4,-16(fp)
 82105ec:	e17ffd15 	stw	r5,-12(fp)
 82105f0:	e1bffe15 	stw	r6,-8(fp)
 82105f4:	e1ffff15 	stw	r7,-4(fp)
	int new_pos_x = sprite->pos_x + amount_x;
 82105f8:	e0bffc17 	ldw	r2,-16(fp)
 82105fc:	1080008b 	ldhu	r2,2(r2)
 8210600:	10ffffcc 	andi	r3,r2,65535
 8210604:	e0bffd17 	ldw	r2,-12(fp)
 8210608:	1885883a 	add	r2,r3,r2
 821060c:	e0bffa15 	stw	r2,-24(fp)
	int new_pos_y = sprite->pos_y + amount_y;
 8210610:	e0bffc17 	ldw	r2,-16(fp)
 8210614:	1080010b 	ldhu	r2,4(r2)
 8210618:	10ffffcc 	andi	r3,r2,65535
 821061c:	e0bfff17 	ldw	r2,-4(fp)
 8210620:	1885883a 	add	r2,r3,r2
 8210624:	e0bffb15 	stw	r2,-20(fp)

//	if (check_colision_objects(new_pos_x + ref_x, new_pos_y + ref_y)) {
//		return 1;
//	}

	if ((new_pos_x + ref_x < END_MAP_X) && (new_pos_x + ref_x > BEGIN_MAP_X)) {
 8210628:	e0fffa17 	ldw	r3,-24(fp)
 821062c:	e0bffe17 	ldw	r2,-8(fp)
 8210630:	1885883a 	add	r2,r3,r2
 8210634:	1082c808 	cmpgei	r2,r2,2848
 8210638:	1000091e 	bne	r2,zero,8210660 <move_sprite+0x84>
 821063c:	e0fffa17 	ldw	r3,-24(fp)
 8210640:	e0bffe17 	ldw	r2,-8(fp)
 8210644:	1885883a 	add	r2,r3,r2
 8210648:	10824ad0 	cmplti	r2,r2,2347
 821064c:	1000041e 	bne	r2,zero,8210660 <move_sprite+0x84>
		sprite->pos_x = new_pos_x;
 8210650:	e0bffa17 	ldw	r2,-24(fp)
 8210654:	1007883a 	mov	r3,r2
 8210658:	e0bffc17 	ldw	r2,-16(fp)
 821065c:	10c0008d 	sth	r3,2(r2)
	}

	if ((new_pos_y + ref_y < END_MAP_Y) && (new_pos_y + ref_y > BEGIN_MAP_Y)) {
 8210660:	e0fffb17 	ldw	r3,-20(fp)
 8210664:	e0800117 	ldw	r2,4(fp)
 8210668:	1885883a 	add	r2,r3,r2
 821066c:	10806008 	cmpgei	r2,r2,384
 8210670:	1000091e 	bne	r2,zero,8210698 <move_sprite+0xbc>
 8210674:	e0fffb17 	ldw	r3,-20(fp)
 8210678:	e0800117 	ldw	r2,4(fp)
 821067c:	1885883a 	add	r2,r3,r2
 8210680:	10803c50 	cmplti	r2,r2,241
 8210684:	1000041e 	bne	r2,zero,8210698 <move_sprite+0xbc>
		sprite->pos_y = new_pos_y;
 8210688:	e0bffb17 	ldw	r2,-20(fp)
 821068c:	1007883a 	mov	r3,r2
 8210690:	e0bffc17 	ldw	r2,-16(fp)
 8210694:	10c0010d 	sth	r3,4(r2)
	}
	return 0;
 8210698:	0005883a 	mov	r2,zero
}
 821069c:	e037883a 	mov	sp,fp
 82106a0:	df000017 	ldw	fp,0(sp)
 82106a4:	dec00104 	addi	sp,sp,4
 82106a8:	f800283a 	ret

082106ac <load_background>:

void load_background(uint32_t offset_x, uint32_t offset_y) {
 82106ac:	defffd04 	addi	sp,sp,-12
 82106b0:	df000215 	stw	fp,8(sp)
 82106b4:	df000204 	addi	fp,sp,8
 82106b8:	e13ffe15 	stw	r4,-8(fp)
 82106bc:	e17fff15 	stw	r5,-4(fp)
	IOWR_32DIRECT(BACKGROUND_LOADER_BASE, REG_OFFSET_X, offset_x);
 82106c0:	e0fffe17 	ldw	r3,-8(fp)
 82106c4:	00820834 	movhi	r2,2080
 82106c8:	10800204 	addi	r2,r2,8
 82106cc:	10c00035 	stwio	r3,0(r2)
	IOWR_32DIRECT(BACKGROUND_LOADER_BASE, REG_OFFSET_Y, offset_y);
 82106d0:	e0ffff17 	ldw	r3,-4(fp)
 82106d4:	00820834 	movhi	r2,2080
 82106d8:	10800304 	addi	r2,r2,12
 82106dc:	10c00035 	stwio	r3,0(r2)
}
 82106e0:	0001883a 	nop
 82106e4:	e037883a 	mov	sp,fp
 82106e8:	df000017 	ldw	fp,0(sp)
 82106ec:	dec00104 	addi	sp,sp,4
 82106f0:	f800283a 	ret

082106f4 <_helper_player_sprite>:

void _helper_player_sprite(Player* player, uint8_t head, uint8_t body_min, uint8_t body_max) {
 82106f4:	defffb04 	addi	sp,sp,-20
 82106f8:	df000415 	stw	fp,16(sp)
 82106fc:	df000404 	addi	fp,sp,16
 8210700:	e13ffc15 	stw	r4,-16(fp)
 8210704:	2809883a 	mov	r4,r5
 8210708:	3007883a 	mov	r3,r6
 821070c:	3805883a 	mov	r2,r7
 8210710:	e13ffd05 	stb	r4,-12(fp)
 8210714:	e0fffe05 	stb	r3,-8(fp)
 8210718:	e0bfff05 	stb	r2,-4(fp)
    player->head.tile_id = head;
 821071c:	e0bffc17 	ldw	r2,-16(fp)
 8210720:	e0fffd03 	ldbu	r3,-12(fp)
 8210724:	10c00005 	stb	r3,0(r2)
    if (player->body.tile_id >= body_min && player->body.tile_id <= body_max) {
 8210728:	e0bffc17 	ldw	r2,-16(fp)
 821072c:	10800183 	ldbu	r2,6(r2)
 8210730:	10c03fcc 	andi	r3,r2,255
 8210734:	e0bffe03 	ldbu	r2,-8(fp)
 8210738:	18800c36 	bltu	r3,r2,821076c <_helper_player_sprite+0x78>
 821073c:	e0bffc17 	ldw	r2,-16(fp)
 8210740:	10800183 	ldbu	r2,6(r2)
 8210744:	10803fcc 	andi	r2,r2,255
 8210748:	e0ffff03 	ldbu	r3,-4(fp)
 821074c:	18800736 	bltu	r3,r2,821076c <_helper_player_sprite+0x78>
        player->body.tile_id += 1;
 8210750:	e0bffc17 	ldw	r2,-16(fp)
 8210754:	10800183 	ldbu	r2,6(r2)
 8210758:	10800044 	addi	r2,r2,1
 821075c:	1007883a 	mov	r3,r2
 8210760:	e0bffc17 	ldw	r2,-16(fp)
 8210764:	10c00185 	stb	r3,6(r2)
 8210768:	00000306 	br	8210778 <_helper_player_sprite+0x84>
    } else {
        player->body.tile_id = body_min;
 821076c:	e0bffc17 	ldw	r2,-16(fp)
 8210770:	e0fffe03 	ldbu	r3,-8(fp)
 8210774:	10c00185 	stb	r3,6(r2)
    }
}
 8210778:	0001883a 	nop
 821077c:	e037883a 	mov	sp,fp
 8210780:	df000017 	ldw	fp,0(sp)
 8210784:	dec00104 	addi	sp,sp,4
 8210788:	f800283a 	ret

0821078c <walk_player>:

void walk_player(Player* player, int amount_x, int ref_x_h, int ref_x_b, int amount_y, int ref_y_h, int ref_y_b) {
 821078c:	defff304 	addi	sp,sp,-52
 8210790:	dfc00c15 	stw	ra,48(sp)
 8210794:	df000b15 	stw	fp,44(sp)
 8210798:	df000b04 	addi	fp,sp,44
 821079c:	e13ffc15 	stw	r4,-16(fp)
 82107a0:	e17ffd15 	stw	r5,-12(fp)
 82107a4:	e1bffe15 	stw	r6,-8(fp)
 82107a8:	e1ffff15 	stw	r7,-4(fp)
	Sprite next_body = player->body;
 82107ac:	e0bffc17 	ldw	r2,-16(fp)
 82107b0:	10c0018b 	ldhu	r3,6(r2)
 82107b4:	e0fffa0d 	sth	r3,-24(fp)
 82107b8:	10c0020b 	ldhu	r3,8(r2)
 82107bc:	e0fffa8d 	sth	r3,-22(fp)
 82107c0:	1080028b 	ldhu	r2,10(r2)
 82107c4:	e0bffb0d 	sth	r2,-20(fp)
	next_body.pos_x += amount_x;
 82107c8:	e0bffa8b 	ldhu	r2,-22(fp)
 82107cc:	e0fffd17 	ldw	r3,-12(fp)
 82107d0:	10c5883a 	add	r2,r2,r3
 82107d4:	e0bffa8d 	sth	r2,-22(fp)
	next_body.pos_y += amount_y;
 82107d8:	e0bffb0b 	ldhu	r2,-20(fp)
 82107dc:	e0c00217 	ldw	r3,8(fp)
 82107e0:	10c5883a 	add	r2,r2,r3
 82107e4:	e0bffb0d 	sth	r2,-20(fp)

    if (check_colision_sprites(&(player->body), 7)) {
 82107e8:	e0bffc17 	ldw	r2,-16(fp)
 82107ec:	10800184 	addi	r2,r2,6
 82107f0:	014001c4 	movi	r5,7
 82107f4:	1009883a 	mov	r4,r2
 82107f8:	82105640 	call	8210564 <check_colision_sprites>
 82107fc:	10803fcc 	andi	r2,r2,255
 8210800:	10001c26 	beq	r2,zero,8210874 <walk_player+0xe8>
        // Reverte movimento
        player->body.pos_x = prev_body_x - amount_x;
 8210804:	d0a18717 	ldw	r2,-31204(gp)
 8210808:	1007883a 	mov	r3,r2
 821080c:	e0bffd17 	ldw	r2,-12(fp)
 8210810:	1885c83a 	sub	r2,r3,r2
 8210814:	1007883a 	mov	r3,r2
 8210818:	e0bffc17 	ldw	r2,-16(fp)
 821081c:	10c0020d 	sth	r3,8(r2)
        player->body.pos_y = prev_body_y - amount_y;
 8210820:	d0a18817 	ldw	r2,-31200(gp)
 8210824:	1007883a 	mov	r3,r2
 8210828:	e0800217 	ldw	r2,8(fp)
 821082c:	1885c83a 	sub	r2,r3,r2
 8210830:	1007883a 	mov	r3,r2
 8210834:	e0bffc17 	ldw	r2,-16(fp)
 8210838:	10c0028d 	sth	r3,10(r2)
        player->head.pos_x = prev_head_x - amount_x;
 821083c:	d0a18517 	ldw	r2,-31212(gp)
 8210840:	1007883a 	mov	r3,r2
 8210844:	e0bffd17 	ldw	r2,-12(fp)
 8210848:	1885c83a 	sub	r2,r3,r2
 821084c:	1007883a 	mov	r3,r2
 8210850:	e0bffc17 	ldw	r2,-16(fp)
 8210854:	10c0008d 	sth	r3,2(r2)
		player->head.pos_y = prev_head_y - amount_y;
 8210858:	d0a18617 	ldw	r2,-31208(gp)
 821085c:	1007883a 	mov	r3,r2
 8210860:	e0800217 	ldw	r2,8(fp)
 8210864:	1885c83a 	sub	r2,r3,r2
 8210868:	1007883a 	mov	r3,r2
 821086c:	e0bffc17 	ldw	r2,-16(fp)
 8210870:	10c0010d 	sth	r3,4(r2)
    }

	prev_body_x = player->body.pos_x;
 8210874:	e0bffc17 	ldw	r2,-16(fp)
 8210878:	1080020b 	ldhu	r2,8(r2)
 821087c:	10bfffcc 	andi	r2,r2,65535
 8210880:	d0a18715 	stw	r2,-31204(gp)
	prev_body_y = player->body.pos_y;
 8210884:	e0bffc17 	ldw	r2,-16(fp)
 8210888:	1080028b 	ldhu	r2,10(r2)
 821088c:	10bfffcc 	andi	r2,r2,65535
 8210890:	d0a18815 	stw	r2,-31200(gp)
	prev_head_x = player->head.pos_x;
 8210894:	e0bffc17 	ldw	r2,-16(fp)
 8210898:	1080008b 	ldhu	r2,2(r2)
 821089c:	10bfffcc 	andi	r2,r2,65535
 82108a0:	d0a18515 	stw	r2,-31212(gp)
	prev_head_y = player->head.pos_y;
 82108a4:	e0bffc17 	ldw	r2,-16(fp)
 82108a8:	1080010b 	ldhu	r2,4(r2)
 82108ac:	10bfffcc 	andi	r2,r2,65535
 82108b0:	d0a18615 	stw	r2,-31208(gp)

	int next_head_x = player->head.pos_x + amount_x;
 82108b4:	e0bffc17 	ldw	r2,-16(fp)
 82108b8:	1080008b 	ldhu	r2,2(r2)
 82108bc:	10ffffcc 	andi	r3,r2,65535
 82108c0:	e0bffd17 	ldw	r2,-12(fp)
 82108c4:	1885883a 	add	r2,r3,r2
 82108c8:	e0bff615 	stw	r2,-40(fp)
	int next_head_y = player->head.pos_y + amount_y;
 82108cc:	e0bffc17 	ldw	r2,-16(fp)
 82108d0:	1080010b 	ldhu	r2,4(r2)
 82108d4:	10ffffcc 	andi	r3,r2,65535
 82108d8:	e0800217 	ldw	r2,8(fp)
 82108dc:	1885883a 	add	r2,r3,r2
 82108e0:	e0bff715 	stw	r2,-36(fp)

	int next_body_x = player->body.pos_x + amount_x;
 82108e4:	e0bffc17 	ldw	r2,-16(fp)
 82108e8:	1080020b 	ldhu	r2,8(r2)
 82108ec:	10ffffcc 	andi	r3,r2,65535
 82108f0:	e0bffd17 	ldw	r2,-12(fp)
 82108f4:	1885883a 	add	r2,r3,r2
 82108f8:	e0bff815 	stw	r2,-32(fp)
	int next_body_y = player->body.pos_y + amount_y;
 82108fc:	e0bffc17 	ldw	r2,-16(fp)
 8210900:	1080028b 	ldhu	r2,10(r2)
 8210904:	10ffffcc 	andi	r3,r2,65535
 8210908:	e0800217 	ldw	r2,8(fp)
 821090c:	1885883a 	add	r2,r3,r2
 8210910:	e0bff915 	stw	r2,-28(fp)

	// Agora sim: checamos se haveria colisão nas futuras posições
	if (check_colision_objects(next_head_x, next_head_y)
 8210914:	e17ff717 	ldw	r5,-36(fp)
 8210918:	e13ff617 	ldw	r4,-40(fp)
 821091c:	82104a40 	call	82104a4 <check_colision_objects>
 8210920:	10803fcc 	andi	r2,r2,255
 8210924:	1000341e 	bne	r2,zero,82109f8 <walk_player+0x26c>
	    || check_colision_objects(next_body_x, next_body_y)) {
 8210928:	e17ff917 	ldw	r5,-28(fp)
 821092c:	e13ff817 	ldw	r4,-32(fp)
 8210930:	82104a40 	call	82104a4 <check_colision_objects>
 8210934:	10803fcc 	andi	r2,r2,255
 8210938:	10002f1e 	bne	r2,zero,82109f8 <walk_player+0x26c>
	    return;
	}

	move_sprite(&(player->head), amount_x, ref_x_h, amount_y, ref_y_h);
 821093c:	e0fffc17 	ldw	r3,-16(fp)
 8210940:	e0800317 	ldw	r2,12(fp)
 8210944:	d8800015 	stw	r2,0(sp)
 8210948:	e1c00217 	ldw	r7,8(fp)
 821094c:	e1bffe17 	ldw	r6,-8(fp)
 8210950:	e17ffd17 	ldw	r5,-12(fp)
 8210954:	1809883a 	mov	r4,r3
 8210958:	82105dc0 	call	82105dc <move_sprite>
	move_sprite(&(player->body), amount_x, ref_x_b, amount_y, ref_y_b);
 821095c:	e0bffc17 	ldw	r2,-16(fp)
 8210960:	10c00184 	addi	r3,r2,6
 8210964:	e0800417 	ldw	r2,16(fp)
 8210968:	d8800015 	stw	r2,0(sp)
 821096c:	e1c00217 	ldw	r7,8(fp)
 8210970:	e1bfff17 	ldw	r6,-4(fp)
 8210974:	e17ffd17 	ldw	r5,-12(fp)
 8210978:	1809883a 	mov	r4,r3
 821097c:	82105dc0 	call	82105dc <move_sprite>

	if (amount_y < 0) {
 8210980:	e0800217 	ldw	r2,8(fp)
 8210984:	1000060e 	bge	r2,zero,82109a0 <walk_player+0x214>
		_helper_player_sprite(player, SPRITE_PLAYER_HEAD_BACK,
 8210988:	01c00bc4 	movi	r7,47
 821098c:	01800b84 	movi	r6,46
 8210990:	01400b04 	movi	r5,44
 8210994:	e13ffc17 	ldw	r4,-16(fp)
 8210998:	82106f40 	call	82106f4 <_helper_player_sprite>
 821099c:	00001706 	br	82109fc <walk_player+0x270>
		SPRITE_PLAYER_BODY_STOPED_BACK,
		SPRITE_PLAYER_BODY_MOVING_BACK_2);
	} else if (amount_y > 0) {
 82109a0:	e0800217 	ldw	r2,8(fp)
 82109a4:	0080060e 	bge	zero,r2,82109c0 <walk_player+0x234>
		_helper_player_sprite(player, SPRITE_PLAYER_HEAD_FRONT,
 82109a8:	01c00284 	movi	r7,10
 82109ac:	01800204 	movi	r6,8
 82109b0:	014001c4 	movi	r5,7
 82109b4:	e13ffc17 	ldw	r4,-16(fp)
 82109b8:	82106f40 	call	82106f4 <_helper_player_sprite>
 82109bc:	00000f06 	br	82109fc <walk_player+0x270>
		SPRITE_PLAYER_BODY_STOPED_FRONT,
		SPRITE_PLAYER_BODY_MOVING_FRONT_2);
	} else if (amount_x < 0) {
 82109c0:	e0bffd17 	ldw	r2,-12(fp)
 82109c4:	1000060e 	bge	r2,zero,82109e0 <walk_player+0x254>
		_helper_player_sprite(player, SPRITE_PLAYER_HEAD_LEFT,
 82109c8:	01c00384 	movi	r7,14
 82109cc:	01800304 	movi	r6,12
 82109d0:	014002c4 	movi	r5,11
 82109d4:	e13ffc17 	ldw	r4,-16(fp)
 82109d8:	82106f40 	call	82106f4 <_helper_player_sprite>
 82109dc:	00000706 	br	82109fc <walk_player+0x270>
		SPRITE_PLAYER_BODY_STOPED_LEFT,
		SPRITE_PLAYER_BODY_MOVING_LEFT_2);
	} else {
		_helper_player_sprite(player, SPRITE_PLAYER_HEAD_RIGHT,
 82109e0:	01c00484 	movi	r7,18
 82109e4:	01800404 	movi	r6,16
 82109e8:	014003c4 	movi	r5,15
 82109ec:	e13ffc17 	ldw	r4,-16(fp)
 82109f0:	82106f40 	call	82106f4 <_helper_player_sprite>
 82109f4:	00000106 	br	82109fc <walk_player+0x270>
	int next_body_y = player->body.pos_y + amount_y;

	// Agora sim: checamos se haveria colisão nas futuras posições
	if (check_colision_objects(next_head_x, next_head_y)
	    || check_colision_objects(next_body_x, next_body_y)) {
	    return;
 82109f8:	0001883a 	nop
	} else {
		_helper_player_sprite(player, SPRITE_PLAYER_HEAD_RIGHT,
		SPRITE_PLAYER_BODY_STOPED_RIGHT,
		SPRITE_PLAYER_BODY_MOVING_RIGHT_2);
	}
}
 82109fc:	e037883a 	mov	sp,fp
 8210a00:	dfc00117 	ldw	ra,4(sp)
 8210a04:	df000017 	ldw	fp,0(sp)
 8210a08:	dec00204 	addi	sp,sp,8
 8210a0c:	f800283a 	ret

08210a10 <get_burguer_component>:

int get_burguer_component(const Player* player, int min_pos_x, int max_pos_x,
		int min_pos_y, int max_pos_y) {
 8210a10:	defff904 	addi	sp,sp,-28
 8210a14:	df000615 	stw	fp,24(sp)
 8210a18:	df000604 	addi	fp,sp,24
 8210a1c:	e13ffc15 	stw	r4,-16(fp)
 8210a20:	e17ffd15 	stw	r5,-12(fp)
 8210a24:	e1bffe15 	stw	r6,-8(fp)
 8210a28:	e1ffff15 	stw	r7,-4(fp)
	int current_x = player->body.pos_x;
 8210a2c:	e0bffc17 	ldw	r2,-16(fp)
 8210a30:	1080020b 	ldhu	r2,8(r2)
 8210a34:	10bfffcc 	andi	r2,r2,65535
 8210a38:	e0bffa15 	stw	r2,-24(fp)
	int current_y = player->body.pos_y;
 8210a3c:	e0bffc17 	ldw	r2,-16(fp)
 8210a40:	1080028b 	ldhu	r2,10(r2)
 8210a44:	10bfffcc 	andi	r2,r2,65535
 8210a48:	e0bffb15 	stw	r2,-20(fp)

	if ((current_x > min_pos_x && current_x < max_pos_x)
 8210a4c:	e0bffa17 	ldw	r2,-24(fp)
 8210a50:	e0fffd17 	ldw	r3,-12(fp)
 8210a54:	18800b0e 	bge	r3,r2,8210a84 <get_burguer_component+0x74>
 8210a58:	e0fffa17 	ldw	r3,-24(fp)
 8210a5c:	e0bffe17 	ldw	r2,-8(fp)
 8210a60:	1880080e 	bge	r3,r2,8210a84 <get_burguer_component+0x74>
			&& (current_y > min_pos_y && current_y < max_pos_y)) {
 8210a64:	e0bffb17 	ldw	r2,-20(fp)
 8210a68:	e0ffff17 	ldw	r3,-4(fp)
 8210a6c:	1880050e 	bge	r3,r2,8210a84 <get_burguer_component+0x74>
 8210a70:	e0fffb17 	ldw	r3,-20(fp)
 8210a74:	e0800117 	ldw	r2,4(fp)
 8210a78:	1880020e 	bge	r3,r2,8210a84 <get_burguer_component+0x74>
		return 1;
 8210a7c:	00800044 	movi	r2,1
 8210a80:	00000106 	br	8210a88 <get_burguer_component+0x78>
	}

	return 0;
 8210a84:	0005883a 	mov	r2,zero
}
 8210a88:	e037883a 	mov	sp,fp
 8210a8c:	df000017 	ldw	fp,0(sp)
 8210a90:	dec00104 	addi	sp,sp,4
 8210a94:	f800283a 	ret

08210a98 <deliver_food>:

void deliver_food(GameStatus* game, const Player* player, int min_pos_x,
		int max_pos_x, int min_pos_y, int max_pos_y) {
 8210a98:	defff904 	addi	sp,sp,-28
 8210a9c:	df000615 	stw	fp,24(sp)
 8210aa0:	df000604 	addi	fp,sp,24
 8210aa4:	e13ffc15 	stw	r4,-16(fp)
 8210aa8:	e17ffd15 	stw	r5,-12(fp)
 8210aac:	e1bffe15 	stw	r6,-8(fp)
 8210ab0:	e1ffff15 	stw	r7,-4(fp)
	int current_x = player->body.pos_x;
 8210ab4:	e0bffd17 	ldw	r2,-12(fp)
 8210ab8:	1080020b 	ldhu	r2,8(r2)
 8210abc:	10bfffcc 	andi	r2,r2,65535
 8210ac0:	e0bffa15 	stw	r2,-24(fp)
	int current_y = player->body.pos_y;
 8210ac4:	e0bffd17 	ldw	r2,-12(fp)
 8210ac8:	1080028b 	ldhu	r2,10(r2)
 8210acc:	10bfffcc 	andi	r2,r2,65535
 8210ad0:	e0bffb15 	stw	r2,-20(fp)

	if ((current_x > min_pos_x && current_x < max_pos_x)
 8210ad4:	e0bffa17 	ldw	r2,-24(fp)
 8210ad8:	e0fffe17 	ldw	r3,-8(fp)
 8210adc:	1880370e 	bge	r3,r2,8210bbc <deliver_food+0x124>
 8210ae0:	e0fffa17 	ldw	r3,-24(fp)
 8210ae4:	e0bfff17 	ldw	r2,-4(fp)
 8210ae8:	1880340e 	bge	r3,r2,8210bbc <deliver_food+0x124>
	    && (current_y > min_pos_y && current_y < max_pos_y)
 8210aec:	e0bffb17 	ldw	r2,-20(fp)
 8210af0:	e0c00117 	ldw	r3,4(fp)
 8210af4:	1880310e 	bge	r3,r2,8210bbc <deliver_food+0x124>
 8210af8:	e0fffb17 	ldw	r3,-20(fp)
 8210afc:	e0800217 	ldw	r2,8(fp)
 8210b00:	18802e0e 	bge	r3,r2,8210bbc <deliver_food+0x124>
	    && (game->bread == game->current_bread
 8210b04:	e0bffc17 	ldw	r2,-16(fp)
 8210b08:	10c00003 	ldbu	r3,0(r2)
 8210b0c:	e0bffc17 	ldw	r2,-16(fp)
 8210b10:	10800103 	ldbu	r2,4(r2)
 8210b14:	18c03fcc 	andi	r3,r3,255
 8210b18:	10803fcc 	andi	r2,r2,255
 8210b1c:	1880271e 	bne	r3,r2,8210bbc <deliver_food+0x124>
	        && game->tomato == game->current_tomato
 8210b20:	e0bffc17 	ldw	r2,-16(fp)
 8210b24:	10c00083 	ldbu	r3,2(r2)
 8210b28:	e0bffc17 	ldw	r2,-16(fp)
 8210b2c:	10800183 	ldbu	r2,6(r2)
 8210b30:	18c03fcc 	andi	r3,r3,255
 8210b34:	10803fcc 	andi	r2,r2,255
 8210b38:	1880201e 	bne	r3,r2,8210bbc <deliver_food+0x124>
	        && game->meat == game->current_meat
 8210b3c:	e0bffc17 	ldw	r2,-16(fp)
 8210b40:	10c000c3 	ldbu	r3,3(r2)
 8210b44:	e0bffc17 	ldw	r2,-16(fp)
 8210b48:	10800203 	ldbu	r2,8(r2)
 8210b4c:	18c03fcc 	andi	r3,r3,255
 8210b50:	10803fcc 	andi	r2,r2,255
 8210b54:	1880191e 	bne	r3,r2,8210bbc <deliver_food+0x124>
	        && game->lettuce == game->current_lettuce
 8210b58:	e0bffc17 	ldw	r2,-16(fp)
 8210b5c:	10c00043 	ldbu	r3,1(r2)
 8210b60:	e0bffc17 	ldw	r2,-16(fp)
 8210b64:	10800143 	ldbu	r2,5(r2)
 8210b68:	18c03fcc 	andi	r3,r3,255
 8210b6c:	10803fcc 	andi	r2,r2,255
 8210b70:	1880121e 	bne	r3,r2,8210bbc <deliver_food+0x124>
	        && game->current_plate == 1)) {
 8210b74:	e0bffc17 	ldw	r2,-16(fp)
 8210b78:	10800243 	ldbu	r2,9(r2)
 8210b7c:	10803fcc 	andi	r2,r2,255
 8210b80:	10800058 	cmpnei	r2,r2,1
 8210b84:	10000d1e 	bne	r2,zero,8210bbc <deliver_food+0x124>

	    game->current_bread = 0;
 8210b88:	e0bffc17 	ldw	r2,-16(fp)
 8210b8c:	10000105 	stb	zero,4(r2)
	    game->current_meat = 0;
 8210b90:	e0bffc17 	ldw	r2,-16(fp)
 8210b94:	10000205 	stb	zero,8(r2)
	    game->current_lettuce = 0;
 8210b98:	e0bffc17 	ldw	r2,-16(fp)
 8210b9c:	10000145 	stb	zero,5(r2)
	    game->current_plate = 0;
 8210ba0:	e0bffc17 	ldw	r2,-16(fp)
 8210ba4:	10000245 	stb	zero,9(r2)
	    game->current_tomato = 0;
 8210ba8:	e0bffc17 	ldw	r2,-16(fp)
 8210bac:	10000185 	stb	zero,6(r2)
	    game->status_burguer = GAME_BURGUER_STATUS_DELIVERED;
 8210bb0:	e0bffc17 	ldw	r2,-16(fp)
 8210bb4:	00c00084 	movi	r3,2
 8210bb8:	10c00285 	stb	r3,10(r2)
	}
}
 8210bbc:	0001883a 	nop
 8210bc0:	e037883a 	mov	sp,fp
 8210bc4:	df000017 	ldw	fp,0(sp)
 8210bc8:	dec00104 	addi	sp,sp,4
 8210bcc:	f800283a 	ret

08210bd0 <handle_burguer_sprite>:

void handle_burguer_sprite(Sprite* sprite, const GameStatus* game) {
 8210bd0:	defffd04 	addi	sp,sp,-12
 8210bd4:	df000215 	stw	fp,8(sp)
 8210bd8:	df000204 	addi	fp,sp,8
 8210bdc:	e13ffe15 	stw	r4,-8(fp)
 8210be0:	e17fff15 	stw	r5,-4(fp)
	if (game->current_plate == 0) {
 8210be4:	e0bfff17 	ldw	r2,-4(fp)
 8210be8:	10800243 	ldbu	r2,9(r2)
 8210bec:	10803fcc 	andi	r2,r2,255
 8210bf0:	1000041e 	bne	r2,zero,8210c04 <handle_burguer_sprite+0x34>
	    sprite->tile_id = SPRITE_X;
 8210bf4:	e0bffe17 	ldw	r2,-8(fp)
 8210bf8:	00c00944 	movi	r3,37
 8210bfc:	10c00005 	stb	r3,0(r2)
	    return;
 8210c00:	00007906 	br	8210de8 <handle_burguer_sprite+0x218>
	}

	sprite->tile_id = SPRITE_PLATE;
 8210c04:	e0bffe17 	ldw	r2,-8(fp)
 8210c08:	00c00184 	movi	r3,6
 8210c0c:	10c00005 	stb	r3,0(r2)
	if (game->current_bread) {
 8210c10:	e0bfff17 	ldw	r2,-4(fp)
 8210c14:	10800103 	ldbu	r2,4(r2)
 8210c18:	10803fcc 	andi	r2,r2,255
 8210c1c:	10007226 	beq	r2,zero,8210de8 <handle_burguer_sprite+0x218>
		sprite->tile_id = SPRITE_PLATE_BREAD;
 8210c20:	e0bffe17 	ldw	r2,-8(fp)
 8210c24:	00c00984 	movi	r3,38
 8210c28:	10c00005 	stb	r3,0(r2)
		if (!game->current_meat && !game->current_tomato
 8210c2c:	e0bfff17 	ldw	r2,-4(fp)
 8210c30:	10800203 	ldbu	r2,8(r2)
 8210c34:	10803fcc 	andi	r2,r2,255
 8210c38:	10000c1e 	bne	r2,zero,8210c6c <handle_burguer_sprite+0x9c>
 8210c3c:	e0bfff17 	ldw	r2,-4(fp)
 8210c40:	10800183 	ldbu	r2,6(r2)
 8210c44:	10803fcc 	andi	r2,r2,255
 8210c48:	1000081e 	bne	r2,zero,8210c6c <handle_burguer_sprite+0x9c>
				&& game->current_lettuce) {
 8210c4c:	e0bfff17 	ldw	r2,-4(fp)
 8210c50:	10800143 	ldbu	r2,5(r2)
 8210c54:	10803fcc 	andi	r2,r2,255
 8210c58:	10000426 	beq	r2,zero,8210c6c <handle_burguer_sprite+0x9c>
			sprite->tile_id = SPRITE_PLATE_BREAD_LETTUCE;
 8210c5c:	e0bffe17 	ldw	r2,-8(fp)
 8210c60:	00c009c4 	movi	r3,39
 8210c64:	10c00005 	stb	r3,0(r2)
 8210c68:	00005f06 	br	8210de8 <handle_burguer_sprite+0x218>
		} else if (!game->current_meat && game->current_tomato
 8210c6c:	e0bfff17 	ldw	r2,-4(fp)
 8210c70:	10800203 	ldbu	r2,8(r2)
 8210c74:	10803fcc 	andi	r2,r2,255
 8210c78:	10000c1e 	bne	r2,zero,8210cac <handle_burguer_sprite+0xdc>
 8210c7c:	e0bfff17 	ldw	r2,-4(fp)
 8210c80:	10800183 	ldbu	r2,6(r2)
 8210c84:	10803fcc 	andi	r2,r2,255
 8210c88:	10000826 	beq	r2,zero,8210cac <handle_burguer_sprite+0xdc>
				&& !game->current_lettuce) {
 8210c8c:	e0bfff17 	ldw	r2,-4(fp)
 8210c90:	10800143 	ldbu	r2,5(r2)
 8210c94:	10803fcc 	andi	r2,r2,255
 8210c98:	1000041e 	bne	r2,zero,8210cac <handle_burguer_sprite+0xdc>
			sprite->tile_id = SPRITE_PLATE_BREAD_TOMATO;
 8210c9c:	e0bffe17 	ldw	r2,-8(fp)
 8210ca0:	00c00a84 	movi	r3,42
 8210ca4:	10c00005 	stb	r3,0(r2)
 8210ca8:	00004f06 	br	8210de8 <handle_burguer_sprite+0x218>
		} else if (!game->current_meat && game->current_tomato
 8210cac:	e0bfff17 	ldw	r2,-4(fp)
 8210cb0:	10800203 	ldbu	r2,8(r2)
 8210cb4:	10803fcc 	andi	r2,r2,255
 8210cb8:	10000c1e 	bne	r2,zero,8210cec <handle_burguer_sprite+0x11c>
 8210cbc:	e0bfff17 	ldw	r2,-4(fp)
 8210cc0:	10800183 	ldbu	r2,6(r2)
 8210cc4:	10803fcc 	andi	r2,r2,255
 8210cc8:	10000826 	beq	r2,zero,8210cec <handle_burguer_sprite+0x11c>
				&& game->current_lettuce) {
 8210ccc:	e0bfff17 	ldw	r2,-4(fp)
 8210cd0:	10800143 	ldbu	r2,5(r2)
 8210cd4:	10803fcc 	andi	r2,r2,255
 8210cd8:	10000426 	beq	r2,zero,8210cec <handle_burguer_sprite+0x11c>
			sprite->tile_id = SPRITE_PLATE_BREAD_LETTUCE_TOMATO;
 8210cdc:	e0bffe17 	ldw	r2,-8(fp)
 8210ce0:	00c00a04 	movi	r3,40
 8210ce4:	10c00005 	stb	r3,0(r2)
 8210ce8:	00003f06 	br	8210de8 <handle_burguer_sprite+0x218>
		} else if (game->current_meat && !game->current_tomato
 8210cec:	e0bfff17 	ldw	r2,-4(fp)
 8210cf0:	10800203 	ldbu	r2,8(r2)
 8210cf4:	10803fcc 	andi	r2,r2,255
 8210cf8:	10000c26 	beq	r2,zero,8210d2c <handle_burguer_sprite+0x15c>
 8210cfc:	e0bfff17 	ldw	r2,-4(fp)
 8210d00:	10800183 	ldbu	r2,6(r2)
 8210d04:	10803fcc 	andi	r2,r2,255
 8210d08:	1000081e 	bne	r2,zero,8210d2c <handle_burguer_sprite+0x15c>
				&& !game->current_lettuce) {
 8210d0c:	e0bfff17 	ldw	r2,-4(fp)
 8210d10:	10800143 	ldbu	r2,5(r2)
 8210d14:	10803fcc 	andi	r2,r2,255
 8210d18:	1000041e 	bne	r2,zero,8210d2c <handle_burguer_sprite+0x15c>
			sprite->tile_id = SPRITE_PLATE_BREAD_MEAT;
 8210d1c:	e0bffe17 	ldw	r2,-8(fp)
 8210d20:	00c00a84 	movi	r3,42
 8210d24:	10c00005 	stb	r3,0(r2)
 8210d28:	00002f06 	br	8210de8 <handle_burguer_sprite+0x218>
		} else if (game->current_meat && !game->current_tomato
 8210d2c:	e0bfff17 	ldw	r2,-4(fp)
 8210d30:	10800203 	ldbu	r2,8(r2)
 8210d34:	10803fcc 	andi	r2,r2,255
 8210d38:	10000c26 	beq	r2,zero,8210d6c <handle_burguer_sprite+0x19c>
 8210d3c:	e0bfff17 	ldw	r2,-4(fp)
 8210d40:	10800183 	ldbu	r2,6(r2)
 8210d44:	10803fcc 	andi	r2,r2,255
 8210d48:	1000081e 	bne	r2,zero,8210d6c <handle_burguer_sprite+0x19c>
				&& game->current_lettuce) {
 8210d4c:	e0bfff17 	ldw	r2,-4(fp)
 8210d50:	10800143 	ldbu	r2,5(r2)
 8210d54:	10803fcc 	andi	r2,r2,255
 8210d58:	10000426 	beq	r2,zero,8210d6c <handle_burguer_sprite+0x19c>
			sprite->tile_id = SPRITE_PLATE_BREAD_LETTUCE_MEAT;
 8210d5c:	e0bffe17 	ldw	r2,-8(fp)
 8210d60:	00c00ac4 	movi	r3,43
 8210d64:	10c00005 	stb	r3,0(r2)
 8210d68:	00001f06 	br	8210de8 <handle_burguer_sprite+0x218>
		} else if (game->current_meat && game->current_tomato
 8210d6c:	e0bfff17 	ldw	r2,-4(fp)
 8210d70:	10800203 	ldbu	r2,8(r2)
 8210d74:	10803fcc 	andi	r2,r2,255
 8210d78:	10000c26 	beq	r2,zero,8210dac <handle_burguer_sprite+0x1dc>
 8210d7c:	e0bfff17 	ldw	r2,-4(fp)
 8210d80:	10800183 	ldbu	r2,6(r2)
 8210d84:	10803fcc 	andi	r2,r2,255
 8210d88:	10000826 	beq	r2,zero,8210dac <handle_burguer_sprite+0x1dc>
				&& !game->current_lettuce) {
 8210d8c:	e0bfff17 	ldw	r2,-4(fp)
 8210d90:	10800143 	ldbu	r2,5(r2)
 8210d94:	10803fcc 	andi	r2,r2,255
 8210d98:	1000041e 	bne	r2,zero,8210dac <handle_burguer_sprite+0x1dc>
			sprite->tile_id = SPRITE_PLATE_BREAD_MEAT_TOMATO;
 8210d9c:	e0bffe17 	ldw	r2,-8(fp)
 8210da0:	00c00a84 	movi	r3,42
 8210da4:	10c00005 	stb	r3,0(r2)
 8210da8:	00000f06 	br	8210de8 <handle_burguer_sprite+0x218>
		} else if (game->current_meat && game->current_tomato
 8210dac:	e0bfff17 	ldw	r2,-4(fp)
 8210db0:	10800203 	ldbu	r2,8(r2)
 8210db4:	10803fcc 	andi	r2,r2,255
 8210db8:	10000b26 	beq	r2,zero,8210de8 <handle_burguer_sprite+0x218>
 8210dbc:	e0bfff17 	ldw	r2,-4(fp)
 8210dc0:	10800183 	ldbu	r2,6(r2)
 8210dc4:	10803fcc 	andi	r2,r2,255
 8210dc8:	10000726 	beq	r2,zero,8210de8 <handle_burguer_sprite+0x218>
				&& game->current_lettuce) {
 8210dcc:	e0bfff17 	ldw	r2,-4(fp)
 8210dd0:	10800143 	ldbu	r2,5(r2)
 8210dd4:	10803fcc 	andi	r2,r2,255
 8210dd8:	10000326 	beq	r2,zero,8210de8 <handle_burguer_sprite+0x218>
			sprite->tile_id = SPRITE_PLATE_BREAD_LETTUCE_TOMATO_MEAT;
 8210ddc:	e0bffe17 	ldw	r2,-8(fp)
 8210de0:	00c00a44 	movi	r3,41
 8210de4:	10c00005 	stb	r3,0(r2)
		}
	}
}
 8210de8:	e037883a 	mov	sp,fp
 8210dec:	df000017 	ldw	fp,0(sp)
 8210df0:	dec00104 	addi	sp,sp,4
 8210df4:	f800283a 	ret

08210df8 <new_frame_isr>:


volatile int frame_flag = 0;

void new_frame_isr(void* context) {
 8210df8:	defffe04 	addi	sp,sp,-8
 8210dfc:	df000115 	stw	fp,4(sp)
 8210e00:	df000104 	addi	fp,sp,4
 8210e04:	e13fff15 	stw	r4,-4(fp)
    // Limpa a interrupção
    IOWR_ALTERA_AVALON_PIO_EDGE_CAP(PIO_0_BASE, 0x1);
 8210e08:	00c00044 	movi	r3,1
 8210e0c:	00822474 	movhi	r2,2193
 8210e10:	10800304 	addi	r2,r2,12
 8210e14:	10c00035 	stwio	r3,0(r2)

    // Sinaliza que um novo frame chegou
    frame_flag = 1;
 8210e18:	00800044 	movi	r2,1
 8210e1c:	d0a18915 	stw	r2,-31196(gp)
}
 8210e20:	0001883a 	nop
 8210e24:	e037883a 	mov	sp,fp
 8210e28:	df000017 	ldw	fp,0(sp)
 8210e2c:	dec00104 	addi	sp,sp,4
 8210e30:	f800283a 	ret

08210e34 <init_pio_interrupt>:

void init_pio_interrupt() {
 8210e34:	defffe04 	addi	sp,sp,-8
 8210e38:	dfc00115 	stw	ra,4(sp)
 8210e3c:	df000015 	stw	fp,0(sp)
 8210e40:	d839883a 	mov	fp,sp
    // Zera EDGE_CAP (registro de captura de borda)
    IOWR_ALTERA_AVALON_PIO_EDGE_CAP(PIO_0_BASE, 0x1);
 8210e44:	00c00044 	movi	r3,1
 8210e48:	00822474 	movhi	r2,2193
 8210e4c:	10800304 	addi	r2,r2,12
 8210e50:	10c00035 	stwio	r3,0(r2)

    // Habilita a interrupção no bit 0 (único bit nesse PIO)
    IOWR_ALTERA_AVALON_PIO_IRQ_MASK(PIO_0_BASE, 0x1);
 8210e54:	00c00044 	movi	r3,1
 8210e58:	00822474 	movhi	r2,2193
 8210e5c:	10800204 	addi	r2,r2,8
 8210e60:	10c00035 	stwio	r3,0(r2)

    // Registra a interrupção no Nios II
    alt_irq_register(PIO_0_IRQ, NULL, (void*)new_frame_isr);
 8210e64:	01820874 	movhi	r6,2081
 8210e68:	31837e04 	addi	r6,r6,3576
 8210e6c:	000b883a 	mov	r5,zero
 8210e70:	0009883a 	mov	r4,zero
 8210e74:	8211b640 	call	8211b64 <alt_irq_register>
}
 8210e78:	0001883a 	nop
 8210e7c:	e037883a 	mov	sp,fp
 8210e80:	dfc00117 	ldw	ra,4(sp)
 8210e84:	df000017 	ldw	fp,0(sp)
 8210e88:	dec00204 	addi	sp,sp,8
 8210e8c:	f800283a 	ret

08210e90 <main>:

int main() {
 8210e90:	deffb204 	addi	sp,sp,-312
 8210e94:	dfc04d15 	stw	ra,308(sp)
 8210e98:	df004c15 	stw	fp,304(sp)
 8210e9c:	df004c04 	addi	fp,sp,304
	init_pio_interrupt();
 8210ea0:	8210e340 	call	8210e34 <init_pio_interrupt>

	srand(SEED);
 8210ea4:	01000044 	movi	r4,1
 8210ea8:	82119b40 	call	82119b4 <srand>
	uint8_t sprite_counter = 0;
 8210eac:	e03fb705 	stb	zero,-292(fp)
	Player player;
	Sprite player_head;
	Sprite player_body;

	player_head.tile_id = SPRITE_PLAYER_HEAD_FRONT;
 8210eb0:	008001c4 	movi	r2,7
 8210eb4:	e0bfbc05 	stb	r2,-272(fp)
	player_head.pos_x = PLAYER_HEAD_INITIAL_POSITION_X;
 8210eb8:	0082be44 	movi	r2,2809
 8210ebc:	e0bfbc8d 	sth	r2,-270(fp)
	player_head.pos_y = PLAYER_HEAD_INITIAL_POSITION_Y;
 8210ec0:	00804c04 	movi	r2,304
 8210ec4:	e0bfbd0d 	sth	r2,-268(fp)

	player_body.tile_id = SPRITE_PLAYER_BODY_STOPED_FRONT;
 8210ec8:	00800204 	movi	r2,8
 8210ecc:	e0bfbd85 	stb	r2,-266(fp)
	player_body.pos_x = PLAYER_HEAD_INITIAL_POSITION_X;
 8210ed0:	0082be44 	movi	r2,2809
 8210ed4:	e0bfbe0d 	sth	r2,-264(fp)
	player_body.pos_y = PLAYER_HEAD_INITIAL_POSITION_Y + SPRITE_SIZE;
 8210ed8:	00805004 	movi	r2,320
 8210edc:	e0bfbe8d 	sth	r2,-262(fp)

	player.head = player_head;
 8210ee0:	e0bfbc17 	ldw	r2,-272(fp)
 8210ee4:	e0bfb915 	stw	r2,-284(fp)
 8210ee8:	e0bfbd0b 	ldhu	r2,-268(fp)
 8210eec:	e0bfba0d 	sth	r2,-280(fp)
	player.body = player_body;
 8210ef0:	e0bfbd8b 	ldhu	r2,-266(fp)
 8210ef4:	e0bfba8d 	sth	r2,-278(fp)
 8210ef8:	e0bfbe0b 	ldhu	r2,-264(fp)
 8210efc:	e0bfbb0d 	sth	r2,-276(fp)
 8210f00:	e0bfbe8b 	ldhu	r2,-262(fp)
 8210f04:	e0bfbb8d 	sth	r2,-274(fp)

	Sprite* sprites[MAX_SPRITES];

	sprites[0] = &player.head;
 8210f08:	e0bfb904 	addi	r2,fp,-284
 8210f0c:	e0bfbf15 	stw	r2,-260(fp)
	sprites[1] = &player.body;
 8210f10:	e0bfb904 	addi	r2,fp,-284
 8210f14:	10800184 	addi	r2,r2,6
 8210f18:	e0bfc015 	stw	r2,-256(fp)

	GameStatus game;
	game.bread = 0;
 8210f1c:	e03fdf05 	stb	zero,-132(fp)
	game.lettuce = 0;
 8210f20:	e03fdf45 	stb	zero,-131(fp)
	game.tomato = 0;
 8210f24:	e03fdf85 	stb	zero,-130(fp)
	game.meat = 0;
 8210f28:	e03fdfc5 	stb	zero,-129(fp)
	game.status_burguer = 0;
 8210f2c:	e03fe185 	stb	zero,-122(fp)
	game.current_bread = 0;
 8210f30:	e03fe005 	stb	zero,-128(fp)
	game.current_lettuce = 0;
 8210f34:	e03fe045 	stb	zero,-127(fp)
	game.current_tomato = 0;
 8210f38:	e03fe085 	stb	zero,-126(fp)
	game.current_meat = 0;
 8210f3c:	e03fe105 	stb	zero,-124(fp)
	game.current_raw_meat = 0;
 8210f40:	e03fe0c5 	stb	zero,-125(fp)
	game.current_plate = 0;
 8210f44:	e03fe145 	stb	zero,-123(fp)

	Sprite bread_sprite_number;
	bread_sprite_number.tile_id = SPRITE_X;
 8210f48:	00800944 	movi	r2,37
 8210f4c:	e0bfe205 	stb	r2,-120(fp)
	bread_sprite_number.pos_x = BREAD_POS_X;
 8210f50:	00829084 	movi	r2,2626
 8210f54:	e0bfe28d 	sth	r2,-118(fp)
	bread_sprite_number.pos_y = ITEM_POS_Y;
 8210f58:	008012c4 	movi	r2,75
 8210f5c:	e0bfe30d 	sth	r2,-116(fp)
	sprites[2] = &bread_sprite_number;
 8210f60:	e0bfe204 	addi	r2,fp,-120
 8210f64:	e0bfc115 	stw	r2,-252(fp)

	Sprite lettuce_sprite_number;
	lettuce_sprite_number.tile_id = SPRITE_X;
 8210f68:	00800944 	movi	r2,37
 8210f6c:	e0bfe385 	stb	r2,-114(fp)
	lettuce_sprite_number.pos_x = LETTUCE_POS_X;
 8210f70:	0082a044 	movi	r2,2689
 8210f74:	e0bfe40d 	sth	r2,-112(fp)
	lettuce_sprite_number.pos_y = ITEM_POS_Y;
 8210f78:	008012c4 	movi	r2,75
 8210f7c:	e0bfe48d 	sth	r2,-110(fp)
	sprites[3] = &lettuce_sprite_number;
 8210f80:	e0bfe384 	addi	r2,fp,-114
 8210f84:	e0bfc215 	stw	r2,-248(fp)

	Sprite tomato_sprite_number;
	tomato_sprite_number.tile_id = SPRITE_X;
 8210f88:	00800944 	movi	r2,37
 8210f8c:	e0bfe505 	stb	r2,-108(fp)
	tomato_sprite_number.pos_x = TOMATO_POS_X;
 8210f90:	0082af84 	movi	r2,2750
 8210f94:	e0bfe58d 	sth	r2,-106(fp)
	tomato_sprite_number.pos_y = ITEM_POS_Y;
 8210f98:	008012c4 	movi	r2,75
 8210f9c:	e0bfe60d 	sth	r2,-104(fp)
	sprites[4] = &tomato_sprite_number;
 8210fa0:	e0bfe504 	addi	r2,fp,-108
 8210fa4:	e0bfc315 	stw	r2,-244(fp)

	Sprite meat_sprite_number;
	meat_sprite_number.tile_id = SPRITE_X;
 8210fa8:	00800944 	movi	r2,37
 8210fac:	e0bfe685 	stb	r2,-102(fp)
	meat_sprite_number.pos_x = MEAT_POS_X;
 8210fb0:	0082bf84 	movi	r2,2814
 8210fb4:	e0bfe70d 	sth	r2,-100(fp)
	meat_sprite_number.pos_y = ITEM_POS_Y;
 8210fb8:	008012c4 	movi	r2,75
 8210fbc:	e0bfe78d 	sth	r2,-98(fp)
	sprites[5] = &meat_sprite_number;
 8210fc0:	e0bfe684 	addi	r2,fp,-102
 8210fc4:	e0bfc415 	stw	r2,-240(fp)

	Sprite full_burguer_sprite;
	full_burguer_sprite.tile_id = SPRITE_X;
 8210fc8:	00800944 	movi	r2,37
 8210fcc:	e0bfe805 	stb	r2,-96(fp)
	full_burguer_sprite.pos_x = FULL_BURGUER_POS_X;
 8210fd0:	0082c744 	movi	r2,2845
 8210fd4:	e0bfe88d 	sth	r2,-94(fp)
	full_burguer_sprite.pos_y = ITEM_POS_Y;
 8210fd8:	008012c4 	movi	r2,75
 8210fdc:	e0bfe90d 	sth	r2,-92(fp)
	sprites[6] = &full_burguer_sprite;
 8210fe0:	e0bfe804 	addi	r2,fp,-96
 8210fe4:	e0bfc515 	stw	r2,-236(fp)

	Sprite collision;
	collision.tile_id = SPRITE_CAR_FRONT_1;
 8210fe8:	008004c4 	movi	r2,19
 8210fec:	e0bfe985 	stb	r2,-90(fp)
	collision.pos_x = PLAYER_HEAD_INITIAL_POSITION_X - 300;
 8210ff0:	00827344 	movi	r2,2509
 8210ff4:	e0bfea0d 	sth	r2,-88(fp)
	collision.pos_y = PLAYER_HEAD_INITIAL_POSITION_Y;
 8210ff8:	00804c04 	movi	r2,304
 8210ffc:	e0bfea8d 	sth	r2,-86(fp)
	sprites[7] = &collision;
 8211000:	e0bfe984 	addi	r2,fp,-90
 8211004:	e0bfc615 	stw	r2,-232(fp)
	Sprite car_front_3_sprite;
	Sprite car_back_1_sprite;
	Sprite car_back_2_sprite;
	Sprite car_back_3_sprite;

	car_front_1_sprite.tile_id = SPRITE_CAR_FRONT_1;
 8211008:	008004c4 	movi	r2,19
 821100c:	e0bff485 	stb	r2,-46(fp)
	car_front_1_sprite.pos_x = 0;
 8211010:	e03ff50d 	sth	zero,-44(fp)
	car_front_1_sprite.pos_y = 0;
 8211014:	e03ff58d 	sth	zero,-42(fp)

	car_front_2_sprite.tile_id = SPRITE_CAR_FRONT_2;
 8211018:	00800544 	movi	r2,21
 821101c:	e0bff605 	stb	r2,-40(fp)
	car_front_2_sprite.pos_x = 0;
 8211020:	e03ff68d 	sth	zero,-38(fp)
	car_front_2_sprite.pos_y = 0;
 8211024:	e03ff70d 	sth	zero,-36(fp)

	car_front_3_sprite.tile_id = SPRITE_CAR_FRONT_3;
 8211028:	008005c4 	movi	r2,23
 821102c:	e0bff785 	stb	r2,-34(fp)
	car_front_3_sprite.pos_x = 0;
 8211030:	e03ff80d 	sth	zero,-32(fp)
	car_front_3_sprite.pos_y = 0;
 8211034:	e03ff88d 	sth	zero,-30(fp)

	car_back_1_sprite.tile_id = SPRITE_CAR_BACK_1;
 8211038:	00800504 	movi	r2,20
 821103c:	e0bff905 	stb	r2,-28(fp)
	car_back_1_sprite.pos_x = 0;
 8211040:	e03ff98d 	sth	zero,-26(fp)
	car_back_1_sprite.pos_x = 0;
 8211044:	e03ff98d 	sth	zero,-26(fp)

	car_back_2_sprite.tile_id = SPRITE_CAR_BACK_2;
 8211048:	00800584 	movi	r2,22
 821104c:	e0bffa85 	stb	r2,-22(fp)
	car_back_2_sprite.pos_x = 0;
 8211050:	e03ffb0d 	sth	zero,-20(fp)
	car_back_2_sprite.pos_x = 0;
 8211054:	e03ffb0d 	sth	zero,-20(fp)

	car_back_3_sprite.tile_id = SPRITE_CAR_BACK_3;
 8211058:	00800604 	movi	r2,24
 821105c:	e0bffc05 	stb	r2,-16(fp)
	car_back_3_sprite.pos_x = 0;
 8211060:	e03ffc8d 	sth	zero,-14(fp)
	car_back_3_sprite.pos_x = 0;
 8211064:	e03ffc8d 	sth	zero,-14(fp)

	sprite_counter = 8;
 8211068:	00800204 	movi	r2,8
 821106c:	e0bfb705 	stb	r2,-292(fp)

// Initial setup: send full BG dimensions and latch config
	IOWR_32DIRECT(BACKGROUND_LOADER_BASE, REG_BG_WIDTH, BG_WIDTH);
 8211070:	00c32004 	movi	r3,3200
 8211074:	00820834 	movhi	r2,2080
 8211078:	10c00035 	stwio	r3,0(r2)
	IOWR_32DIRECT(BACKGROUND_LOADER_BASE, REG_BG_HEIGHT, BG_HEIGHT);
 821107c:	00c07804 	movi	r3,480
 8211080:	00820834 	movhi	r2,2080
 8211084:	10800104 	addi	r2,r2,4
 8211088:	10c00035 	stwio	r3,0(r2)
	IOWR_32DIRECT(BACKGROUND_LOADER_BASE, REG_OFFSET_START, 1);
 821108c:	00c00044 	movi	r3,1
 8211090:	00820834 	movhi	r2,2080
 8211094:	10800404 	addi	r2,r2,16
 8211098:	10c00035 	stwio	r3,0(r2)
	IOWR_32DIRECT(COMPOSER_BASE, REG_COMP_WORLD_TYPE * 4, 0);  // 00: 9x1, 01: 1x9, 10: 3x3
 821109c:	0007883a 	mov	r3,zero
 82110a0:	00820834 	movhi	r2,2080
 82110a4:	10812204 	addi	r2,r2,1160
 82110a8:	10c00035 	stwio	r3,0(r2)
	IOWR_32DIRECT(COMPOSER_BASE, REG_COMP_READY * 4, 1);
 82110ac:	00c00044 	movi	r3,1
 82110b0:	00820834 	movhi	r2,2080
 82110b4:	10812304 	addi	r2,r2,1164
 82110b8:	10c00035 	stwio	r3,0(r2)

// Espera 3 segundo
	usleep(5000000);
 82110bc:	01001334 	movhi	r4,76
 82110c0:	2112d004 	addi	r4,r4,19264
 82110c4:	8211e300 	call	8211e30 <usleep>

	load_background(SECOND_IMAGE_OFFSET_X, SECOND_IMAGE_OFFSET_Y);
 82110c8:	000b883a 	mov	r5,zero
 82110cc:	0100a004 	movi	r4,640
 82110d0:	82106ac0 	call	82106ac <load_background>

	usleep(5000000);
 82110d4:	01001334 	movhi	r4,76
 82110d8:	2112d004 	addi	r4,r4,19264
 82110dc:	8211e300 	call	8211e30 <usleep>

	load_background(START_IMAGE_OFFSET_X, START_IMAGE_OFFSET_Y);
 82110e0:	000b883a 	mov	r5,zero
 82110e4:	01014004 	movi	r4,1280
 82110e8:	82106ac0 	call	82106ac <load_background>

// Faz uma tela de carregamento
	uint8_t start_game = 1;
 82110ec:	00800044 	movi	r2,1
 82110f0:	e0bfb745 	stb	r2,-291(fp)
	while (start_game) {
 82110f4:	00000a06 	br	8211120 <main+0x290>
		volatile int btn = IORD_32DIRECT(GAMEPAD_PINS_BASE, 0);
 82110f8:	00822434 	movhi	r2,2192
 82110fc:	10800037 	ldwio	r2,0(r2)
 8211100:	e0bffe15 	stw	r2,-8(fp)
		if (is_pressed(btn, BUTTON_START)) {
 8211104:	e0bffe17 	ldw	r2,-8(fp)
 8211108:	01400284 	movi	r5,10
 821110c:	1009883a 	mov	r4,r2
 8211110:	82104640 	call	8210464 <is_pressed>
 8211114:	10803fcc 	andi	r2,r2,255
 8211118:	10000126 	beq	r2,zero,8211120 <main+0x290>
			start_game = 0;
 821111c:	e03fb745 	stb	zero,-291(fp)

	load_background(START_IMAGE_OFFSET_X, START_IMAGE_OFFSET_Y);

// Faz uma tela de carregamento
	uint8_t start_game = 1;
	while (start_game) {
 8211120:	e0bfb743 	ldbu	r2,-291(fp)
 8211124:	103ff41e 	bne	r2,zero,82110f8 <__alt_data_end+0xffff10f8>
		if (is_pressed(btn, BUTTON_START)) {
			start_game = 0;
		}
	}

	load_background(CAMERA_GAME_POSITION_X, CAMERA_GAME_POSITION_Y);
 8211128:	000b883a 	mov	r5,zero
 821112c:	01023844 	movi	r4,2273
 8211130:	82106ac0 	call	82106ac <load_background>
	send_sprites_to_composer(sprites, sprite_counter);
 8211134:	e0ffb703 	ldbu	r3,-292(fp)
 8211138:	e0bfbf04 	addi	r2,fp,-260
 821113c:	180b883a 	mov	r5,r3
 8211140:	1009883a 	mov	r4,r2
 8211144:	82102c00 	call	82102c0 <send_sprites_to_composer>
	int count = 0;
 8211148:	e03fb815 	stw	zero,-288(fp)
// Inicia o jogo
	while (1) {
		volatile int btn = IORD_32DIRECT(GAMEPAD_PINS_BASE, 0);
 821114c:	00822434 	movhi	r2,2192
 8211150:	10800037 	ldwio	r2,0(r2)
 8211154:	e0bfff15 	stw	r2,-4(fp)
		if (frame_flag) {
 8211158:	d0a18917 	ldw	r2,-31196(gp)
 821115c:	103ffb26 	beq	r2,zero,821114c <__alt_data_end+0xffff114c>
			frame_flag = 0;
 8211160:	d0218915 	stw	zero,-31196(gp)
			if (is_pressed(btn, BUTTON_UP)) {
 8211164:	e0bfff17 	ldw	r2,-4(fp)
 8211168:	000b883a 	mov	r5,zero
 821116c:	1009883a 	mov	r4,r2
 8211170:	82104640 	call	8210464 <is_pressed>
 8211174:	10803fcc 	andi	r2,r2,255
 8211178:	10000c26 	beq	r2,zero,82111ac <main+0x31c>
				walk_player(&player, 0, 0, 0, -WALKING_SPEED, 0, -SPRITE_SIZE);//Player* player, int amount_x, int ref_x_h, int ref_x_b, int amount_y, int ref_y_h, int ref_y_b
 821117c:	e0ffb904 	addi	r3,fp,-284
 8211180:	00bffc04 	movi	r2,-16
 8211184:	d8800215 	stw	r2,8(sp)
 8211188:	d8000115 	stw	zero,4(sp)
 821118c:	00bfff84 	movi	r2,-2
 8211190:	d8800015 	stw	r2,0(sp)
 8211194:	000f883a 	mov	r7,zero
 8211198:	000d883a 	mov	r6,zero
 821119c:	000b883a 	mov	r5,zero
 82111a0:	1809883a 	mov	r4,r3
 82111a4:	821078c0 	call	821078c <walk_player>
 82111a8:	00005506 	br	8211300 <main+0x470>
			} else if (is_pressed(btn, BUTTON_DOWN)) {
 82111ac:	e0bfff17 	ldw	r2,-4(fp)
 82111b0:	01400044 	movi	r5,1
 82111b4:	1009883a 	mov	r4,r2
 82111b8:	82104640 	call	8210464 <is_pressed>
 82111bc:	10803fcc 	andi	r2,r2,255
 82111c0:	10000c26 	beq	r2,zero,82111f4 <main+0x364>
				walk_player(&player, 0, 0, 0, WALKING_SPEED, SPRITE_SIZE, 0);
 82111c4:	e0ffb904 	addi	r3,fp,-284
 82111c8:	d8000215 	stw	zero,8(sp)
 82111cc:	00800404 	movi	r2,16
 82111d0:	d8800115 	stw	r2,4(sp)
 82111d4:	00800084 	movi	r2,2
 82111d8:	d8800015 	stw	r2,0(sp)
 82111dc:	000f883a 	mov	r7,zero
 82111e0:	000d883a 	mov	r6,zero
 82111e4:	000b883a 	mov	r5,zero
 82111e8:	1809883a 	mov	r4,r3
 82111ec:	821078c0 	call	821078c <walk_player>
 82111f0:	00004306 	br	8211300 <main+0x470>
			} else if (is_pressed(btn, BUTTON_LEFT)) {
 82111f4:	e0bfff17 	ldw	r2,-4(fp)
 82111f8:	01400084 	movi	r5,2
 82111fc:	1009883a 	mov	r4,r2
 8211200:	82104640 	call	8210464 <is_pressed>
 8211204:	10803fcc 	andi	r2,r2,255
 8211208:	10000a26 	beq	r2,zero,8211234 <main+0x3a4>
				walk_player(&player, -WALKING_SPEED, 0, 0, 0, 0, 0);
 821120c:	e0bfb904 	addi	r2,fp,-284
 8211210:	d8000215 	stw	zero,8(sp)
 8211214:	d8000115 	stw	zero,4(sp)
 8211218:	d8000015 	stw	zero,0(sp)
 821121c:	000f883a 	mov	r7,zero
 8211220:	000d883a 	mov	r6,zero
 8211224:	017fff84 	movi	r5,-2
 8211228:	1009883a 	mov	r4,r2
 821122c:	821078c0 	call	821078c <walk_player>
 8211230:	00003306 	br	8211300 <main+0x470>
			} else if (is_pressed(btn, BUTTON_RIGHT)) {
 8211234:	e0bfff17 	ldw	r2,-4(fp)
 8211238:	014000c4 	movi	r5,3
 821123c:	1009883a 	mov	r4,r2
 8211240:	82104640 	call	8210464 <is_pressed>
 8211244:	10803fcc 	andi	r2,r2,255
 8211248:	10000a26 	beq	r2,zero,8211274 <main+0x3e4>
				walk_player(&player, WALKING_SPEED, 0, 0, 0, 0, 0);
 821124c:	e0bfb904 	addi	r2,fp,-284
 8211250:	d8000215 	stw	zero,8(sp)
 8211254:	d8000115 	stw	zero,4(sp)
 8211258:	d8000015 	stw	zero,0(sp)
 821125c:	000f883a 	mov	r7,zero
 8211260:	000d883a 	mov	r6,zero
 8211264:	01400084 	movi	r5,2
 8211268:	1009883a 	mov	r4,r2
 821126c:	821078c0 	call	821078c <walk_player>
 8211270:	00002306 	br	8211300 <main+0x470>
			}else {
				// player parado
				if (player.body.tile_id >= SPRITE_PLAYER_BODY_STOPED_FRONT
 8211274:	e0bfba83 	ldbu	r2,-278(fp)
 8211278:	10803fcc 	andi	r2,r2,255
 821127c:	10800228 	cmpgeui	r2,r2,8
 8211280:	1000041e 	bne	r2,zero,8211294 <main+0x404>
						|| player.body.tile_id <= SPRITE_PLAYER_BODY_MOVING_FRONT_2) {
 8211284:	e0bfba83 	ldbu	r2,-278(fp)
 8211288:	10803fcc 	andi	r2,r2,255
 821128c:	108002e8 	cmpgeui	r2,r2,11
 8211290:	1000031e 	bne	r2,zero,82112a0 <main+0x410>
					player.body.tile_id = SPRITE_PLAYER_BODY_STOPED_FRONT;
 8211294:	00800204 	movi	r2,8
 8211298:	e0bfba85 	stb	r2,-278(fp)
 821129c:	00001806 	br	8211300 <main+0x470>
				} else if (player.body.tile_id >= SPRITE_PLAYER_BODY_STOPED_BACK
 82112a0:	e0bfba83 	ldbu	r2,-278(fp)
 82112a4:	10803fcc 	andi	r2,r2,255
 82112a8:	10800ba8 	cmpgeui	r2,r2,46
 82112ac:	1000041e 	bne	r2,zero,82112c0 <main+0x430>
						|| player.body.tile_id <= SPRITE_PLAYER_BODY_MOVING_BACK_2) {
 82112b0:	e0bfba83 	ldbu	r2,-278(fp)
 82112b4:	10803fcc 	andi	r2,r2,255
 82112b8:	10800c28 	cmpgeui	r2,r2,48
 82112bc:	1000031e 	bne	r2,zero,82112cc <main+0x43c>
					player.body.tile_id = SPRITE_PLAYER_BODY_STOPED_BACK;
 82112c0:	00800b84 	movi	r2,46
 82112c4:	e0bfba85 	stb	r2,-278(fp)
 82112c8:	00000d06 	br	8211300 <main+0x470>
				} else if (player.body.tile_id >= SPRITE_PLAYER_BODY_STOPED_LEFT
 82112cc:	e0bfba83 	ldbu	r2,-278(fp)
 82112d0:	10803fcc 	andi	r2,r2,255
 82112d4:	10800328 	cmpgeui	r2,r2,12
 82112d8:	1000041e 	bne	r2,zero,82112ec <main+0x45c>
						|| player.body.tile_id <= SPRITE_PLAYER_BODY_MOVING_LEFT_2) {
 82112dc:	e0bfba83 	ldbu	r2,-278(fp)
 82112e0:	10803fcc 	andi	r2,r2,255
 82112e4:	108003e8 	cmpgeui	r2,r2,15
 82112e8:	1000031e 	bne	r2,zero,82112f8 <main+0x468>
					player.body.tile_id = SPRITE_PLAYER_BODY_STOPED_LEFT;
 82112ec:	00800304 	movi	r2,12
 82112f0:	e0bfba85 	stb	r2,-278(fp)
 82112f4:	00000206 	br	8211300 <main+0x470>
				} else {
					player.body.tile_id = SPRITE_PLAYER_BODY_STOPED_RIGHT;
 82112f8:	00800404 	movi	r2,16
 82112fc:	e0bfba85 	stb	r2,-278(fp)
				}
			}
//			sprites[0] = player.head;
//			sprites[1] = player.body;
//			// Checa por carro
			if (car.car_status == CAR_STATUS_ARRIVED) {
 8211300:	e0bff403 	ldbu	r2,-48(fp)
 8211304:	10803fcc 	andi	r2,r2,255
 8211308:	1000441e 	bne	r2,zero,821141c <main+0x58c>
				car.car_status = CAR_STATUS_AWAITING;
 821130c:	00800044 	movi	r2,1
 8211310:	e0bff405 	stb	r2,-48(fp)

				game.bread = rand() % 9 + 1;
 8211314:	82119cc0 	call	82119cc <rand>
 8211318:	01400244 	movi	r5,9
 821131c:	1009883a 	mov	r4,r2
 8211320:	82118840 	call	8211884 <__modsi3>
 8211324:	10800044 	addi	r2,r2,1
 8211328:	e0bfdf05 	stb	r2,-132(fp)
				game.lettuce = rand() % 10;
 821132c:	82119cc0 	call	82119cc <rand>
 8211330:	01400284 	movi	r5,10
 8211334:	1009883a 	mov	r4,r2
 8211338:	82118840 	call	8211884 <__modsi3>
 821133c:	e0bfdf45 	stb	r2,-131(fp)
				game.meat = rand() % 10;
 8211340:	82119cc0 	call	82119cc <rand>
 8211344:	01400284 	movi	r5,10
 8211348:	1009883a 	mov	r4,r2
 821134c:	82118840 	call	8211884 <__modsi3>
 8211350:	e0bfdfc5 	stb	r2,-129(fp)
				game.tomato = rand() % 10;
 8211354:	82119cc0 	call	82119cc <rand>
 8211358:	01400284 	movi	r5,10
 821135c:	1009883a 	mov	r4,r2
 8211360:	82118840 	call	8211884 <__modsi3>
 8211364:	e0bfdf85 	stb	r2,-130(fp)
				bread_sprite_number.tile_id = SPRITE_NUMBER_0 - game.bread;
 8211368:	e0bfdf03 	ldbu	r2,-132(fp)
 821136c:	00c00904 	movi	r3,36
 8211370:	1885c83a 	sub	r2,r3,r2
 8211374:	e0bfe205 	stb	r2,-120(fp)
				lettuce_sprite_number.tile_id = SPRITE_NUMBER_0 - game.lettuce;
 8211378:	e0bfdf43 	ldbu	r2,-131(fp)
 821137c:	00c00904 	movi	r3,36
 8211380:	1885c83a 	sub	r2,r3,r2
 8211384:	e0bfe385 	stb	r2,-114(fp)
				meat_sprite_number.tile_id = SPRITE_NUMBER_0 - game.meat;
 8211388:	e0bfdfc3 	ldbu	r2,-129(fp)
 821138c:	00c00904 	movi	r3,36
 8211390:	1885c83a 	sub	r2,r3,r2
 8211394:	e0bfe685 	stb	r2,-102(fp)
				tomato_sprite_number.tile_id = SPRITE_NUMBER_0 - game.tomato;
 8211398:	e0bfdf83 	ldbu	r2,-130(fp)
 821139c:	00c00904 	movi	r3,36
 82113a0:	1885c83a 	sub	r2,r3,r2
 82113a4:	e0bfe505 	stb	r2,-108(fp)

				car_front_1_sprite.pos_x = CAR_INITIAL_POS_X;
 82113a8:	0082c844 	movi	r2,2849
 82113ac:	e0bff50d 	sth	r2,-44(fp)
				car_front_1_sprite.pos_y = CAR_INITIAL_POS_Y;
 82113b0:	008031c4 	movi	r2,199
 82113b4:	e0bff58d 	sth	r2,-42(fp)
				car_back_1_sprite.pos_x = CAR_INITIAL_POS_X;
 82113b8:	0082c844 	movi	r2,2849
 82113bc:	e0bff98d 	sth	r2,-26(fp)
				car_back_1_sprite.pos_y = CAR_INITIAL_POS_Y + SPRITE_SIZE;
 82113c0:	008035c4 	movi	r2,215
 82113c4:	e0bffa0d 	sth	r2,-24(fp)

				sprites[sprite_counter] = &car_front_1_sprite;
 82113c8:	e0bfb703 	ldbu	r2,-292(fp)
 82113cc:	1085883a 	add	r2,r2,r2
 82113d0:	1085883a 	add	r2,r2,r2
 82113d4:	e0ffb704 	addi	r3,fp,-292
 82113d8:	1885883a 	add	r2,r3,r2
 82113dc:	10800804 	addi	r2,r2,32
 82113e0:	e0fff484 	addi	r3,fp,-46
 82113e4:	10c00015 	stw	r3,0(r2)
				sprites[sprite_counter + 1] = &car_back_1_sprite;
 82113e8:	e0bfb703 	ldbu	r2,-292(fp)
 82113ec:	10800044 	addi	r2,r2,1
 82113f0:	1085883a 	add	r2,r2,r2
 82113f4:	1085883a 	add	r2,r2,r2
 82113f8:	e0ffb704 	addi	r3,fp,-292
 82113fc:	1885883a 	add	r2,r3,r2
 8211400:	10800804 	addi	r2,r2,32
 8211404:	e0fff904 	addi	r3,fp,-28
 8211408:	10c00015 	stw	r3,0(r2)
				sprite_counter += 2;
 821140c:	e0bfb703 	ldbu	r2,-292(fp)
 8211410:	10800084 	addi	r2,r2,2
 8211414:	e0bfb705 	stb	r2,-292(fp)
 8211418:	00008706 	br	8211638 <main+0x7a8>
			} else if (car.car_status == CAR_STATUS_AWAITING
 821141c:	e0bff403 	ldbu	r2,-48(fp)
 8211420:	10803fcc 	andi	r2,r2,255
 8211424:	10800058 	cmpnei	r2,r2,1
 8211428:	1000071e 	bne	r2,zero,8211448 <main+0x5b8>
					&& game.status_burguer == GAME_BURGUER_STATUS_DELIVERED) {
 821142c:	e0bfe183 	ldbu	r2,-122(fp)
 8211430:	10803fcc 	andi	r2,r2,255
 8211434:	10800098 	cmpnei	r2,r2,2
 8211438:	1000031e 	bne	r2,zero,8211448 <main+0x5b8>
				car.car_status = CAR_STATUS_GO_AWAY_1;
 821143c:	00800084 	movi	r2,2
 8211440:	e0bff405 	stb	r2,-48(fp)
 8211444:	00007c06 	br	8211638 <main+0x7a8>
			} else if (car.car_status == CAR_STATUS_GO_AWAY_1) {
 8211448:	e0bff403 	ldbu	r2,-48(fp)
 821144c:	10803fcc 	andi	r2,r2,255
 8211450:	10800098 	cmpnei	r2,r2,2
 8211454:	1000311e 	bne	r2,zero,821151c <main+0x68c>
				if (count == 0) {
 8211458:	e0bfb817 	ldw	r2,-288(fp)
 821145c:	1000251e 	bne	r2,zero,82114f4 <main+0x664>
					car_front_1_sprite.pos_x = CAR_INITIAL_POS_X - SPRITE_SIZE;
 8211460:	0082c444 	movi	r2,2833
 8211464:	e0bff50d 	sth	r2,-44(fp)
					car_front_1_sprite.pos_y = CAR_INITIAL_POS_Y;
 8211468:	008031c4 	movi	r2,199
 821146c:	e0bff58d 	sth	r2,-42(fp)
					car_back_1_sprite.pos_x = CAR_INITIAL_POS_X - SPRITE_SIZE;
 8211470:	0082c444 	movi	r2,2833
 8211474:	e0bff98d 	sth	r2,-26(fp)
					car_back_1_sprite.pos_y = CAR_INITIAL_POS_Y + SPRITE_SIZE;
 8211478:	008035c4 	movi	r2,215
 821147c:	e0bffa0d 	sth	r2,-24(fp)

					car_front_2_sprite.pos_x = CAR_INITIAL_POS_X;
 8211480:	0082c844 	movi	r2,2849
 8211484:	e0bff68d 	sth	r2,-38(fp)
					car_front_2_sprite.pos_y = CAR_INITIAL_POS_Y;
 8211488:	008031c4 	movi	r2,199
 821148c:	e0bff70d 	sth	r2,-36(fp)
					car_back_2_sprite.pos_x = CAR_INITIAL_POS_X;
 8211490:	0082c844 	movi	r2,2849
 8211494:	e0bffb0d 	sth	r2,-20(fp)
					car_back_2_sprite.pos_y = CAR_INITIAL_POS_Y + SPRITE_SIZE;
 8211498:	008035c4 	movi	r2,215
 821149c:	e0bffb8d 	sth	r2,-18(fp)

					sprites[sprite_counter] = &car_front_2_sprite;
 82114a0:	e0bfb703 	ldbu	r2,-292(fp)
 82114a4:	1085883a 	add	r2,r2,r2
 82114a8:	1085883a 	add	r2,r2,r2
 82114ac:	e0ffb704 	addi	r3,fp,-292
 82114b0:	1885883a 	add	r2,r3,r2
 82114b4:	10800804 	addi	r2,r2,32
 82114b8:	e0fff604 	addi	r3,fp,-40
 82114bc:	10c00015 	stw	r3,0(r2)
					sprites[sprite_counter + 1] = &car_back_2_sprite;
 82114c0:	e0bfb703 	ldbu	r2,-292(fp)
 82114c4:	10800044 	addi	r2,r2,1
 82114c8:	1085883a 	add	r2,r2,r2
 82114cc:	1085883a 	add	r2,r2,r2
 82114d0:	e0ffb704 	addi	r3,fp,-292
 82114d4:	1885883a 	add	r2,r3,r2
 82114d8:	10800804 	addi	r2,r2,32
 82114dc:	e0fffa84 	addi	r3,fp,-22
 82114e0:	10c00015 	stw	r3,0(r2)
					sprite_counter += 2;
 82114e4:	e0bfb703 	ldbu	r2,-292(fp)
 82114e8:	10800084 	addi	r2,r2,2
 82114ec:	e0bfb705 	stb	r2,-292(fp)
 82114f0:	00005106 	br	8211638 <main+0x7a8>
				} else if (count == 10) {
 82114f4:	e0bfb817 	ldw	r2,-288(fp)
 82114f8:	10800298 	cmpnei	r2,r2,10
 82114fc:	1000031e 	bne	r2,zero,821150c <main+0x67c>
					car.car_status = CAR_STATUS_GO_AWAY_2;
 8211500:	008000c4 	movi	r2,3
 8211504:	e0bff405 	stb	r2,-48(fp)
 8211508:	00004b06 	br	8211638 <main+0x7a8>
				} else {
					count += 1;
 821150c:	e0bfb817 	ldw	r2,-288(fp)
 8211510:	10800044 	addi	r2,r2,1
 8211514:	e0bfb815 	stw	r2,-288(fp)
 8211518:	00004706 	br	8211638 <main+0x7a8>
				}
			} else if (car.car_status == CAR_STATUS_GO_AWAY_2) {
 821151c:	e0bff403 	ldbu	r2,-48(fp)
 8211520:	10803fcc 	andi	r2,r2,255
 8211524:	108000d8 	cmpnei	r2,r2,3
 8211528:	10003a1e 	bne	r2,zero,8211614 <main+0x784>
				if (count == 10) {
 821152c:	e0bfb817 	ldw	r2,-288(fp)
 8211530:	10800298 	cmpnei	r2,r2,10
 8211534:	10002d1e 	bne	r2,zero,82115ec <main+0x75c>
					car_front_1_sprite.pos_x = CAR_INITIAL_POS_X - 2 * SPRITE_SIZE;
 8211538:	0082c044 	movi	r2,2817
 821153c:	e0bff50d 	sth	r2,-44(fp)
					car_front_1_sprite.pos_y = CAR_INITIAL_POS_Y;
 8211540:	008031c4 	movi	r2,199
 8211544:	e0bff58d 	sth	r2,-42(fp)
					car_back_1_sprite.pos_x = CAR_INITIAL_POS_X - 2 * SPRITE_SIZE;
 8211548:	0082c044 	movi	r2,2817
 821154c:	e0bff98d 	sth	r2,-26(fp)
					car_back_1_sprite.pos_y = CAR_INITIAL_POS_Y + SPRITE_SIZE;
 8211550:	008035c4 	movi	r2,215
 8211554:	e0bffa0d 	sth	r2,-24(fp)

					car_front_2_sprite.pos_x = CAR_INITIAL_POS_X - SPRITE_SIZE;
 8211558:	0082c444 	movi	r2,2833
 821155c:	e0bff68d 	sth	r2,-38(fp)
					car_front_2_sprite.pos_y = CAR_INITIAL_POS_Y;
 8211560:	008031c4 	movi	r2,199
 8211564:	e0bff70d 	sth	r2,-36(fp)
					car_back_2_sprite.pos_x = CAR_INITIAL_POS_X - SPRITE_SIZE;
 8211568:	0082c444 	movi	r2,2833
 821156c:	e0bffb0d 	sth	r2,-20(fp)
					car_back_2_sprite.pos_y = CAR_INITIAL_POS_Y + SPRITE_SIZE;
 8211570:	008035c4 	movi	r2,215
 8211574:	e0bffb8d 	sth	r2,-18(fp)

					car_front_3_sprite.pos_x = CAR_INITIAL_POS_X;
 8211578:	0082c844 	movi	r2,2849
 821157c:	e0bff80d 	sth	r2,-32(fp)
					car_front_3_sprite.pos_y = CAR_INITIAL_POS_Y;
 8211580:	008031c4 	movi	r2,199
 8211584:	e0bff88d 	sth	r2,-30(fp)
					car_back_3_sprite.pos_x = CAR_INITIAL_POS_X;
 8211588:	0082c844 	movi	r2,2849
 821158c:	e0bffc8d 	sth	r2,-14(fp)
					car_back_3_sprite.pos_y = CAR_INITIAL_POS_Y + SPRITE_SIZE;
 8211590:	008035c4 	movi	r2,215
 8211594:	e0bffd0d 	sth	r2,-12(fp)

					sprites[sprite_counter] = &car_front_3_sprite;
 8211598:	e0bfb703 	ldbu	r2,-292(fp)
 821159c:	1085883a 	add	r2,r2,r2
 82115a0:	1085883a 	add	r2,r2,r2
 82115a4:	e0ffb704 	addi	r3,fp,-292
 82115a8:	1885883a 	add	r2,r3,r2
 82115ac:	10800804 	addi	r2,r2,32
 82115b0:	e0fff784 	addi	r3,fp,-34
 82115b4:	10c00015 	stw	r3,0(r2)
					sprites[sprite_counter + 1] = &car_back_3_sprite;
 82115b8:	e0bfb703 	ldbu	r2,-292(fp)
 82115bc:	10800044 	addi	r2,r2,1
 82115c0:	1085883a 	add	r2,r2,r2
 82115c4:	1085883a 	add	r2,r2,r2
 82115c8:	e0ffb704 	addi	r3,fp,-292
 82115cc:	1885883a 	add	r2,r3,r2
 82115d0:	10800804 	addi	r2,r2,32
 82115d4:	e0fffc04 	addi	r3,fp,-16
 82115d8:	10c00015 	stw	r3,0(r2)
					sprite_counter += 2;
 82115dc:	e0bfb703 	ldbu	r2,-292(fp)
 82115e0:	10800084 	addi	r2,r2,2
 82115e4:	e0bfb705 	stb	r2,-292(fp)
 82115e8:	00001306 	br	8211638 <main+0x7a8>
				} else if (count == 20) {
 82115ec:	e0bfb817 	ldw	r2,-288(fp)
 82115f0:	10800518 	cmpnei	r2,r2,20
 82115f4:	1000031e 	bne	r2,zero,8211604 <main+0x774>
					car.car_status = CAR_STATUS_NO_CAR;;
 82115f8:	00800104 	movi	r2,4
 82115fc:	e0bff405 	stb	r2,-48(fp)
 8211600:	00000d06 	br	8211638 <main+0x7a8>
				} else {
					count += 1;
 8211604:	e0bfb817 	ldw	r2,-288(fp)
 8211608:	10800044 	addi	r2,r2,1
 821160c:	e0bfb815 	stw	r2,-288(fp)
 8211610:	00000906 	br	8211638 <main+0x7a8>
				}

			} else if (car.car_status == CAR_STATUS_NO_CAR) {
 8211614:	e0bff403 	ldbu	r2,-48(fp)
 8211618:	10803fcc 	andi	r2,r2,255
 821161c:	10800118 	cmpnei	r2,r2,4
 8211620:	1000051e 	bne	r2,zero,8211638 <main+0x7a8>
				car.car_status = CAR_STATUS_ARRIVED;
 8211624:	e03ff405 	stb	zero,-48(fp)
				sprite_counter -= 6;
 8211628:	e0bfb703 	ldbu	r2,-292(fp)
 821162c:	10bffe84 	addi	r2,r2,-6
 8211630:	e0bfb705 	stb	r2,-292(fp)
				count = 0;
 8211634:	e03fb815 	stw	zero,-288(fp)
			}

			if (is_pressed(btn, BUTTON_A)) {
 8211638:	e0bfff17 	ldw	r2,-4(fp)
 821163c:	01400104 	movi	r5,4
 8211640:	1009883a 	mov	r4,r2
 8211644:	82104640 	call	8210464 <is_pressed>
 8211648:	10803fcc 	andi	r2,r2,255
 821164c:	10006626 	beq	r2,zero,82117e8 <main+0x958>
				if (game.current_plate == 0) {
 8211650:	e0bfe143 	ldbu	r2,-123(fp)
 8211654:	10803fcc 	andi	r2,r2,255
 8211658:	10000a1e 	bne	r2,zero,8211684 <main+0x7f4>
					game.current_plate = get_burguer_component(&player,
 821165c:	e0ffb904 	addi	r3,fp,-284
 8211660:	00804584 	movi	r2,278
 8211664:	d8800015 	stw	r2,0(sp)
 8211668:	01c04184 	movi	r7,262
 821166c:	01828b44 	movi	r6,2605
 8211670:	01428284 	movi	r5,2570
 8211674:	1809883a 	mov	r4,r3
 8211678:	8210a100 	call	8210a10 <get_burguer_component>
 821167c:	e0bfe145 	stb	r2,-123(fp)
 8211680:	00004906 	br	82117a8 <main+0x918>
					PLATE_BOX_POINT_X_1, PLATE_BOX_POINT_X_2,
					PLATE_BOX_POINT_Y_1, PLATE_BOX_POINT_Y_2);
				} else if (game.current_plate == 1) {
 8211684:	e0bfe143 	ldbu	r2,-123(fp)
 8211688:	10803fcc 	andi	r2,r2,255
 821168c:	10800058 	cmpnei	r2,r2,1
 8211690:	1000451e 	bne	r2,zero,82117a8 <main+0x918>
					game.current_bread += get_burguer_component(&player,
 8211694:	e0ffb904 	addi	r3,fp,-284
 8211698:	00804b44 	movi	r2,301
 821169c:	d8800015 	stw	r2,0(sp)
 82116a0:	01c04404 	movi	r7,272
 82116a4:	01825144 	movi	r6,2373
 82116a8:	01424b04 	movi	r5,2348
 82116ac:	1809883a 	mov	r4,r3
 82116b0:	8210a100 	call	8210a10 <get_burguer_component>
 82116b4:	1007883a 	mov	r3,r2
 82116b8:	e0bfe003 	ldbu	r2,-128(fp)
 82116bc:	10c5883a 	add	r2,r2,r3
 82116c0:	e0bfe005 	stb	r2,-128(fp)
					ITEM_BOX_POINT_X_1, ITEM_BOX_POINT_X_2,
					BREAD_BOX_POINT_Y_1, BREAD_BOX_POINT_Y_2);
					if (game.current_bread > 0) {
 82116c4:	e0bfe003 	ldbu	r2,-128(fp)
 82116c8:	10803fcc 	andi	r2,r2,255
 82116cc:	10003626 	beq	r2,zero,82117a8 <main+0x918>
						game.current_lettuce += get_burguer_component(&player,
 82116d0:	e0ffb904 	addi	r3,fp,-284
 82116d4:	008052c4 	movi	r2,331
 82116d8:	d8800015 	stw	r2,0(sp)
 82116dc:	01c04b44 	movi	r7,301
 82116e0:	01825144 	movi	r6,2373
 82116e4:	01424b04 	movi	r5,2348
 82116e8:	1809883a 	mov	r4,r3
 82116ec:	8210a100 	call	8210a10 <get_burguer_component>
 82116f0:	1007883a 	mov	r3,r2
 82116f4:	e0bfe043 	ldbu	r2,-127(fp)
 82116f8:	10c5883a 	add	r2,r2,r3
 82116fc:	e0bfe045 	stb	r2,-127(fp)
						ITEM_BOX_POINT_X_1, ITEM_BOX_POINT_X_2,
						LETTUCE_BOX_POINT_Y_1, LETTUCE_BOX_POINT_Y_2);
						game.current_tomato += get_burguer_component(&player,
 8211700:	e0ffb904 	addi	r3,fp,-284
 8211704:	00805a44 	movi	r2,361
 8211708:	d8800015 	stw	r2,0(sp)
 821170c:	01c052c4 	movi	r7,331
 8211710:	01825144 	movi	r6,2373
 8211714:	01424b04 	movi	r5,2348
 8211718:	1809883a 	mov	r4,r3
 821171c:	8210a100 	call	8210a10 <get_burguer_component>
 8211720:	1007883a 	mov	r3,r2
 8211724:	e0bfe083 	ldbu	r2,-126(fp)
 8211728:	10c5883a 	add	r2,r2,r3
 821172c:	e0bfe085 	stb	r2,-126(fp)
						ITEM_BOX_POINT_X_1, ITEM_BOX_POINT_X_2,
						TOMATO_BOX_POINT_Y_1, TOMATO_BOX_POINT_Y_2);
						game.current_raw_meat += get_burguer_component(&player,
 8211730:	e0ffb904 	addi	r3,fp,-284
 8211734:	008061c4 	movi	r2,391
 8211738:	d8800015 	stw	r2,0(sp)
 821173c:	01c05a44 	movi	r7,361
 8211740:	01825144 	movi	r6,2373
 8211744:	01424b04 	movi	r5,2348
 8211748:	1809883a 	mov	r4,r3
 821174c:	8210a100 	call	8210a10 <get_burguer_component>
 8211750:	1007883a 	mov	r3,r2
 8211754:	e0bfe0c3 	ldbu	r2,-125(fp)
 8211758:	10c5883a 	add	r2,r2,r3
 821175c:	e0bfe0c5 	stb	r2,-125(fp)
						ITEM_BOX_POINT_X_1, ITEM_BOX_POINT_X_2,
						RAW_MEAT_BOX_POINT_Y_1, RAW_MEAT_BOX_POINT_Y_2);

						if (game.current_raw_meat) {
 8211760:	e0bfe0c3 	ldbu	r2,-125(fp)
 8211764:	10803fcc 	andi	r2,r2,255
 8211768:	10000f26 	beq	r2,zero,82117a8 <main+0x918>
							game.current_meat += get_burguer_component(&player,
 821176c:	e0ffb904 	addi	r3,fp,-284
 8211770:	00805f04 	movi	r2,380
 8211774:	d8800015 	stw	r2,0(sp)
 8211778:	01c056c4 	movi	r7,347
 821177c:	01828f44 	movi	r6,2621
 8211780:	01428a84 	movi	r5,2602
 8211784:	1809883a 	mov	r4,r3
 8211788:	8210a100 	call	8210a10 <get_burguer_component>
 821178c:	1007883a 	mov	r3,r2
 8211790:	e0bfe103 	ldbu	r2,-124(fp)
 8211794:	10c5883a 	add	r2,r2,r3
 8211798:	e0bfe105 	stb	r2,-124(fp)
							MEAT_BOX_POINT_X_1, MEAT_BOX_POINT_X_2,
							MEAT_BOX_POINT_Y_1, MEAT_BOX_POINT_Y_2);
							game.current_raw_meat -= 1;
 821179c:	e0bfe0c3 	ldbu	r2,-125(fp)
 82117a0:	10bfffc4 	addi	r2,r2,-1
 82117a4:	e0bfe0c5 	stb	r2,-125(fp)
						}
					}
				}

				deliver_food(&game, &player, DELIVER_BOX_POINT_X_1,
 82117a8:	e13fb904 	addi	r4,fp,-284
 82117ac:	e0ffdf04 	addi	r3,fp,-132
 82117b0:	00804644 	movi	r2,281
 82117b4:	d8800115 	stw	r2,4(sp)
 82117b8:	00804184 	movi	r2,262
 82117bc:	d8800015 	stw	r2,0(sp)
 82117c0:	01c2cbc4 	movi	r7,2863
 82117c4:	0182b004 	movi	r6,2752
 82117c8:	200b883a 	mov	r5,r4
 82117cc:	1809883a 	mov	r4,r3
 82117d0:	8210a980 	call	8210a98 <deliver_food>
				DELIVER_BOX_POINT_X_2,
				DELIVER_BOX_POINT_Y_1, DELIVER_BOX_POINT_Y_2);

				handle_burguer_sprite(&full_burguer_sprite, &game);
 82117d4:	e0ffdf04 	addi	r3,fp,-132
 82117d8:	e0bfe804 	addi	r2,fp,-96
 82117dc:	180b883a 	mov	r5,r3
 82117e0:	1009883a 	mov	r4,r2
 82117e4:	8210bd00 	call	8210bd0 <handle_burguer_sprite>

			}

			send_sprites_to_composer(sprites, sprite_counter);
 82117e8:	e0ffb703 	ldbu	r3,-292(fp)
 82117ec:	e0bfbf04 	addi	r2,fp,-260
 82117f0:	180b883a 	mov	r5,r3
 82117f4:	1009883a 	mov	r4,r2
 82117f8:	82102c00 	call	82102c0 <send_sprites_to_composer>
		}
	}
 82117fc:	003e5306 	br	821114c <__alt_data_end+0xffff114c>

08211800 <__divsi3>:
 8211800:	20001b16 	blt	r4,zero,8211870 <__divsi3+0x70>
 8211804:	000f883a 	mov	r7,zero
 8211808:	28001616 	blt	r5,zero,8211864 <__divsi3+0x64>
 821180c:	200d883a 	mov	r6,r4
 8211810:	29001a2e 	bgeu	r5,r4,821187c <__divsi3+0x7c>
 8211814:	00800804 	movi	r2,32
 8211818:	00c00044 	movi	r3,1
 821181c:	00000106 	br	8211824 <__divsi3+0x24>
 8211820:	10000d26 	beq	r2,zero,8211858 <__divsi3+0x58>
 8211824:	294b883a 	add	r5,r5,r5
 8211828:	10bfffc4 	addi	r2,r2,-1
 821182c:	18c7883a 	add	r3,r3,r3
 8211830:	293ffb36 	bltu	r5,r4,8211820 <__alt_data_end+0xffff1820>
 8211834:	0005883a 	mov	r2,zero
 8211838:	18000726 	beq	r3,zero,8211858 <__divsi3+0x58>
 821183c:	0005883a 	mov	r2,zero
 8211840:	31400236 	bltu	r6,r5,821184c <__divsi3+0x4c>
 8211844:	314dc83a 	sub	r6,r6,r5
 8211848:	10c4b03a 	or	r2,r2,r3
 821184c:	1806d07a 	srli	r3,r3,1
 8211850:	280ad07a 	srli	r5,r5,1
 8211854:	183ffa1e 	bne	r3,zero,8211840 <__alt_data_end+0xffff1840>
 8211858:	38000126 	beq	r7,zero,8211860 <__divsi3+0x60>
 821185c:	0085c83a 	sub	r2,zero,r2
 8211860:	f800283a 	ret
 8211864:	014bc83a 	sub	r5,zero,r5
 8211868:	39c0005c 	xori	r7,r7,1
 821186c:	003fe706 	br	821180c <__alt_data_end+0xffff180c>
 8211870:	0109c83a 	sub	r4,zero,r4
 8211874:	01c00044 	movi	r7,1
 8211878:	003fe306 	br	8211808 <__alt_data_end+0xffff1808>
 821187c:	00c00044 	movi	r3,1
 8211880:	003fee06 	br	821183c <__alt_data_end+0xffff183c>

08211884 <__modsi3>:
 8211884:	20001716 	blt	r4,zero,82118e4 <__modsi3+0x60>
 8211888:	000f883a 	mov	r7,zero
 821188c:	2005883a 	mov	r2,r4
 8211890:	28001216 	blt	r5,zero,82118dc <__modsi3+0x58>
 8211894:	2900162e 	bgeu	r5,r4,82118f0 <__modsi3+0x6c>
 8211898:	01800804 	movi	r6,32
 821189c:	00c00044 	movi	r3,1
 82118a0:	00000106 	br	82118a8 <__modsi3+0x24>
 82118a4:	30000a26 	beq	r6,zero,82118d0 <__modsi3+0x4c>
 82118a8:	294b883a 	add	r5,r5,r5
 82118ac:	31bfffc4 	addi	r6,r6,-1
 82118b0:	18c7883a 	add	r3,r3,r3
 82118b4:	293ffb36 	bltu	r5,r4,82118a4 <__alt_data_end+0xffff18a4>
 82118b8:	18000526 	beq	r3,zero,82118d0 <__modsi3+0x4c>
 82118bc:	1806d07a 	srli	r3,r3,1
 82118c0:	11400136 	bltu	r2,r5,82118c8 <__modsi3+0x44>
 82118c4:	1145c83a 	sub	r2,r2,r5
 82118c8:	280ad07a 	srli	r5,r5,1
 82118cc:	183ffb1e 	bne	r3,zero,82118bc <__alt_data_end+0xffff18bc>
 82118d0:	38000126 	beq	r7,zero,82118d8 <__modsi3+0x54>
 82118d4:	0085c83a 	sub	r2,zero,r2
 82118d8:	f800283a 	ret
 82118dc:	014bc83a 	sub	r5,zero,r5
 82118e0:	003fec06 	br	8211894 <__alt_data_end+0xffff1894>
 82118e4:	0109c83a 	sub	r4,zero,r4
 82118e8:	01c00044 	movi	r7,1
 82118ec:	003fe706 	br	821188c <__alt_data_end+0xffff188c>
 82118f0:	00c00044 	movi	r3,1
 82118f4:	003ff106 	br	82118bc <__alt_data_end+0xffff18bc>

082118f8 <__udivsi3>:
 82118f8:	200d883a 	mov	r6,r4
 82118fc:	2900152e 	bgeu	r5,r4,8211954 <__udivsi3+0x5c>
 8211900:	28001416 	blt	r5,zero,8211954 <__udivsi3+0x5c>
 8211904:	00800804 	movi	r2,32
 8211908:	00c00044 	movi	r3,1
 821190c:	00000206 	br	8211918 <__udivsi3+0x20>
 8211910:	10000e26 	beq	r2,zero,821194c <__udivsi3+0x54>
 8211914:	28000516 	blt	r5,zero,821192c <__udivsi3+0x34>
 8211918:	294b883a 	add	r5,r5,r5
 821191c:	10bfffc4 	addi	r2,r2,-1
 8211920:	18c7883a 	add	r3,r3,r3
 8211924:	293ffa36 	bltu	r5,r4,8211910 <__alt_data_end+0xffff1910>
 8211928:	18000826 	beq	r3,zero,821194c <__udivsi3+0x54>
 821192c:	0005883a 	mov	r2,zero
 8211930:	31400236 	bltu	r6,r5,821193c <__udivsi3+0x44>
 8211934:	314dc83a 	sub	r6,r6,r5
 8211938:	10c4b03a 	or	r2,r2,r3
 821193c:	1806d07a 	srli	r3,r3,1
 8211940:	280ad07a 	srli	r5,r5,1
 8211944:	183ffa1e 	bne	r3,zero,8211930 <__alt_data_end+0xffff1930>
 8211948:	f800283a 	ret
 821194c:	0005883a 	mov	r2,zero
 8211950:	f800283a 	ret
 8211954:	00c00044 	movi	r3,1
 8211958:	003ff406 	br	821192c <__alt_data_end+0xffff192c>

0821195c <__umodsi3>:
 821195c:	2005883a 	mov	r2,r4
 8211960:	2900122e 	bgeu	r5,r4,82119ac <__umodsi3+0x50>
 8211964:	28001116 	blt	r5,zero,82119ac <__umodsi3+0x50>
 8211968:	01800804 	movi	r6,32
 821196c:	00c00044 	movi	r3,1
 8211970:	00000206 	br	821197c <__umodsi3+0x20>
 8211974:	30000c26 	beq	r6,zero,82119a8 <__umodsi3+0x4c>
 8211978:	28000516 	blt	r5,zero,8211990 <__umodsi3+0x34>
 821197c:	294b883a 	add	r5,r5,r5
 8211980:	31bfffc4 	addi	r6,r6,-1
 8211984:	18c7883a 	add	r3,r3,r3
 8211988:	293ffa36 	bltu	r5,r4,8211974 <__alt_data_end+0xffff1974>
 821198c:	18000626 	beq	r3,zero,82119a8 <__umodsi3+0x4c>
 8211990:	1806d07a 	srli	r3,r3,1
 8211994:	11400136 	bltu	r2,r5,821199c <__umodsi3+0x40>
 8211998:	1145c83a 	sub	r2,r2,r5
 821199c:	280ad07a 	srli	r5,r5,1
 82119a0:	183ffb1e 	bne	r3,zero,8211990 <__alt_data_end+0xffff1990>
 82119a4:	f800283a 	ret
 82119a8:	f800283a 	ret
 82119ac:	00c00044 	movi	r3,1
 82119b0:	003ff706 	br	8211990 <__alt_data_end+0xffff1990>

082119b4 <srand>:
 82119b4:	00820874 	movhi	r2,2081
 82119b8:	108b2304 	addi	r2,r2,11404
 82119bc:	10800017 	ldw	r2,0(r2)
 82119c0:	11002915 	stw	r4,164(r2)
 82119c4:	10002a15 	stw	zero,168(r2)
 82119c8:	f800283a 	ret

082119cc <rand>:
 82119cc:	00820874 	movhi	r2,2081
 82119d0:	defffe04 	addi	sp,sp,-8
 82119d4:	108b2304 	addi	r2,r2,11404
 82119d8:	dc000015 	stw	r16,0(sp)
 82119dc:	14000017 	ldw	r16,0(r2)
 82119e0:	dfc00115 	stw	ra,4(sp)
 82119e4:	01932574 	movhi	r6,19605
 82119e8:	81002917 	ldw	r4,164(r16)
 82119ec:	81402a17 	ldw	r5,168(r16)
 82119f0:	01d614b4 	movhi	r7,22610
 82119f4:	319fcb44 	addi	r6,r6,32557
 82119f8:	39fd0b44 	addi	r7,r7,-3027
 82119fc:	8211a300 	call	8211a30 <__muldi3>
 8211a00:	11000044 	addi	r4,r2,1
 8211a04:	2085803a 	cmpltu	r2,r4,r2
 8211a08:	10c7883a 	add	r3,r2,r3
 8211a0c:	00a00034 	movhi	r2,32768
 8211a10:	10bfffc4 	addi	r2,r2,-1
 8211a14:	1884703a 	and	r2,r3,r2
 8211a18:	81002915 	stw	r4,164(r16)
 8211a1c:	80c02a15 	stw	r3,168(r16)
 8211a20:	dfc00117 	ldw	ra,4(sp)
 8211a24:	dc000017 	ldw	r16,0(sp)
 8211a28:	dec00204 	addi	sp,sp,8
 8211a2c:	f800283a 	ret

08211a30 <__muldi3>:
 8211a30:	defff604 	addi	sp,sp,-40
 8211a34:	dd800615 	stw	r22,24(sp)
 8211a38:	dd400515 	stw	r21,20(sp)
 8211a3c:	dc400115 	stw	r17,4(sp)
 8211a40:	357fffcc 	andi	r21,r6,65535
 8211a44:	2022d43a 	srli	r17,r4,16
 8211a48:	25bfffcc 	andi	r22,r4,65535
 8211a4c:	dcc00315 	stw	r19,12(sp)
 8211a50:	dc800215 	stw	r18,8(sp)
 8211a54:	2027883a 	mov	r19,r4
 8211a58:	2825883a 	mov	r18,r5
 8211a5c:	b009883a 	mov	r4,r22
 8211a60:	a80b883a 	mov	r5,r21
 8211a64:	dfc00915 	stw	ra,36(sp)
 8211a68:	df000815 	stw	fp,32(sp)
 8211a6c:	ddc00715 	stw	r23,28(sp)
 8211a70:	3839883a 	mov	fp,r7
 8211a74:	302ed43a 	srli	r23,r6,16
 8211a78:	dd000415 	stw	r20,16(sp)
 8211a7c:	dc000015 	stw	r16,0(sp)
 8211a80:	3029883a 	mov	r20,r6
 8211a84:	8211b3c0 	call	8211b3c <__mulsi3>
 8211a88:	a80b883a 	mov	r5,r21
 8211a8c:	8809883a 	mov	r4,r17
 8211a90:	1021883a 	mov	r16,r2
 8211a94:	8211b3c0 	call	8211b3c <__mulsi3>
 8211a98:	8809883a 	mov	r4,r17
 8211a9c:	b80b883a 	mov	r5,r23
 8211aa0:	102b883a 	mov	r21,r2
 8211aa4:	8211b3c0 	call	8211b3c <__mulsi3>
 8211aa8:	b80b883a 	mov	r5,r23
 8211aac:	b009883a 	mov	r4,r22
 8211ab0:	1023883a 	mov	r17,r2
 8211ab4:	8211b3c0 	call	8211b3c <__mulsi3>
 8211ab8:	8006d43a 	srli	r3,r16,16
 8211abc:	1545883a 	add	r2,r2,r21
 8211ac0:	1885883a 	add	r2,r3,r2
 8211ac4:	1540022e 	bgeu	r2,r21,8211ad0 <__muldi3+0xa0>
 8211ac8:	00c00074 	movhi	r3,1
 8211acc:	88e3883a 	add	r17,r17,r3
 8211ad0:	1006d43a 	srli	r3,r2,16
 8211ad4:	1004943a 	slli	r2,r2,16
 8211ad8:	e00b883a 	mov	r5,fp
 8211adc:	9809883a 	mov	r4,r19
 8211ae0:	843fffcc 	andi	r16,r16,65535
 8211ae4:	1c63883a 	add	r17,r3,r17
 8211ae8:	1421883a 	add	r16,r2,r16
 8211aec:	8211b3c0 	call	8211b3c <__mulsi3>
 8211af0:	900b883a 	mov	r5,r18
 8211af4:	a009883a 	mov	r4,r20
 8211af8:	1027883a 	mov	r19,r2
 8211afc:	8211b3c0 	call	8211b3c <__mulsi3>
 8211b00:	9885883a 	add	r2,r19,r2
 8211b04:	1447883a 	add	r3,r2,r17
 8211b08:	8005883a 	mov	r2,r16
 8211b0c:	dfc00917 	ldw	ra,36(sp)
 8211b10:	df000817 	ldw	fp,32(sp)
 8211b14:	ddc00717 	ldw	r23,28(sp)
 8211b18:	dd800617 	ldw	r22,24(sp)
 8211b1c:	dd400517 	ldw	r21,20(sp)
 8211b20:	dd000417 	ldw	r20,16(sp)
 8211b24:	dcc00317 	ldw	r19,12(sp)
 8211b28:	dc800217 	ldw	r18,8(sp)
 8211b2c:	dc400117 	ldw	r17,4(sp)
 8211b30:	dc000017 	ldw	r16,0(sp)
 8211b34:	dec00a04 	addi	sp,sp,40
 8211b38:	f800283a 	ret

08211b3c <__mulsi3>:
 8211b3c:	0005883a 	mov	r2,zero
 8211b40:	20000726 	beq	r4,zero,8211b60 <__mulsi3+0x24>
 8211b44:	20c0004c 	andi	r3,r4,1
 8211b48:	2008d07a 	srli	r4,r4,1
 8211b4c:	18000126 	beq	r3,zero,8211b54 <__mulsi3+0x18>
 8211b50:	1145883a 	add	r2,r2,r5
 8211b54:	294b883a 	add	r5,r5,r5
 8211b58:	203ffa1e 	bne	r4,zero,8211b44 <__alt_data_end+0xffff1b44>
 8211b5c:	f800283a 	ret
 8211b60:	f800283a 	ret

08211b64 <alt_irq_register>:
 8211b64:	defff004 	addi	sp,sp,-64
 8211b68:	df000f15 	stw	fp,60(sp)
 8211b6c:	df000f04 	addi	fp,sp,60
 8211b70:	e13ffd15 	stw	r4,-12(fp)
 8211b74:	e17ffe15 	stw	r5,-8(fp)
 8211b78:	e1bfff15 	stw	r6,-4(fp)
 8211b7c:	00bffa84 	movi	r2,-22
 8211b80:	e0bff115 	stw	r2,-60(fp)
 8211b84:	e0bffd17 	ldw	r2,-12(fp)
 8211b88:	10800828 	cmpgeui	r2,r2,32
 8211b8c:	1000501e 	bne	r2,zero,8211cd0 <alt_irq_register+0x16c>
 8211b90:	0005303a 	rdctl	r2,status
 8211b94:	e0bff615 	stw	r2,-40(fp)
 8211b98:	e0fff617 	ldw	r3,-40(fp)
 8211b9c:	00bfff84 	movi	r2,-2
 8211ba0:	1884703a 	and	r2,r3,r2
 8211ba4:	1001703a 	wrctl	status,r2
 8211ba8:	e0bff617 	ldw	r2,-40(fp)
 8211bac:	e0bff315 	stw	r2,-52(fp)
 8211bb0:	00820874 	movhi	r2,2081
 8211bb4:	108cb204 	addi	r2,r2,13000
 8211bb8:	e0fffd17 	ldw	r3,-12(fp)
 8211bbc:	180690fa 	slli	r3,r3,3
 8211bc0:	10c5883a 	add	r2,r2,r3
 8211bc4:	e0ffff17 	ldw	r3,-4(fp)
 8211bc8:	10c00015 	stw	r3,0(r2)
 8211bcc:	00820874 	movhi	r2,2081
 8211bd0:	108cb204 	addi	r2,r2,13000
 8211bd4:	e0fffd17 	ldw	r3,-12(fp)
 8211bd8:	180690fa 	slli	r3,r3,3
 8211bdc:	10c5883a 	add	r2,r2,r3
 8211be0:	10800104 	addi	r2,r2,4
 8211be4:	e0fffe17 	ldw	r3,-8(fp)
 8211be8:	10c00015 	stw	r3,0(r2)
 8211bec:	e0bfff17 	ldw	r2,-4(fp)
 8211bf0:	10001926 	beq	r2,zero,8211c58 <alt_irq_register+0xf4>
 8211bf4:	e0bffd17 	ldw	r2,-12(fp)
 8211bf8:	e0bff215 	stw	r2,-56(fp)
 8211bfc:	0005303a 	rdctl	r2,status
 8211c00:	e0bff715 	stw	r2,-36(fp)
 8211c04:	e0fff717 	ldw	r3,-36(fp)
 8211c08:	00bfff84 	movi	r2,-2
 8211c0c:	1884703a 	and	r2,r3,r2
 8211c10:	1001703a 	wrctl	status,r2
 8211c14:	e0bff717 	ldw	r2,-36(fp)
 8211c18:	e0bff815 	stw	r2,-32(fp)
 8211c1c:	00c00044 	movi	r3,1
 8211c20:	e0bff217 	ldw	r2,-56(fp)
 8211c24:	1884983a 	sll	r2,r3,r2
 8211c28:	1007883a 	mov	r3,r2
 8211c2c:	d0a18a17 	ldw	r2,-31192(gp)
 8211c30:	1884b03a 	or	r2,r3,r2
 8211c34:	d0a18a15 	stw	r2,-31192(gp)
 8211c38:	d0a18a17 	ldw	r2,-31192(gp)
 8211c3c:	100170fa 	wrctl	ienable,r2
 8211c40:	e0bff817 	ldw	r2,-32(fp)
 8211c44:	e0bff915 	stw	r2,-28(fp)
 8211c48:	e0bff917 	ldw	r2,-28(fp)
 8211c4c:	1001703a 	wrctl	status,r2
 8211c50:	0005883a 	mov	r2,zero
 8211c54:	00001906 	br	8211cbc <alt_irq_register+0x158>
 8211c58:	e0bffd17 	ldw	r2,-12(fp)
 8211c5c:	e0bff415 	stw	r2,-48(fp)
 8211c60:	0005303a 	rdctl	r2,status
 8211c64:	e0bffa15 	stw	r2,-24(fp)
 8211c68:	e0fffa17 	ldw	r3,-24(fp)
 8211c6c:	00bfff84 	movi	r2,-2
 8211c70:	1884703a 	and	r2,r3,r2
 8211c74:	1001703a 	wrctl	status,r2
 8211c78:	e0bffa17 	ldw	r2,-24(fp)
 8211c7c:	e0bffb15 	stw	r2,-20(fp)
 8211c80:	00c00044 	movi	r3,1
 8211c84:	e0bff417 	ldw	r2,-48(fp)
 8211c88:	1884983a 	sll	r2,r3,r2
 8211c8c:	0084303a 	nor	r2,zero,r2
 8211c90:	1007883a 	mov	r3,r2
 8211c94:	d0a18a17 	ldw	r2,-31192(gp)
 8211c98:	1884703a 	and	r2,r3,r2
 8211c9c:	d0a18a15 	stw	r2,-31192(gp)
 8211ca0:	d0a18a17 	ldw	r2,-31192(gp)
 8211ca4:	100170fa 	wrctl	ienable,r2
 8211ca8:	e0bffb17 	ldw	r2,-20(fp)
 8211cac:	e0bffc15 	stw	r2,-16(fp)
 8211cb0:	e0bffc17 	ldw	r2,-16(fp)
 8211cb4:	1001703a 	wrctl	status,r2
 8211cb8:	0005883a 	mov	r2,zero
 8211cbc:	e0bff115 	stw	r2,-60(fp)
 8211cc0:	e0bff317 	ldw	r2,-52(fp)
 8211cc4:	e0bff515 	stw	r2,-44(fp)
 8211cc8:	e0bff517 	ldw	r2,-44(fp)
 8211ccc:	1001703a 	wrctl	status,r2
 8211cd0:	e0bff117 	ldw	r2,-60(fp)
 8211cd4:	e037883a 	mov	sp,fp
 8211cd8:	df000017 	ldw	fp,0(sp)
 8211cdc:	dec00104 	addi	sp,sp,4
 8211ce0:	f800283a 	ret

08211ce4 <alt_load_section>:
 8211ce4:	defffc04 	addi	sp,sp,-16
 8211ce8:	df000315 	stw	fp,12(sp)
 8211cec:	df000304 	addi	fp,sp,12
 8211cf0:	e13ffd15 	stw	r4,-12(fp)
 8211cf4:	e17ffe15 	stw	r5,-8(fp)
 8211cf8:	e1bfff15 	stw	r6,-4(fp)
 8211cfc:	e0fffe17 	ldw	r3,-8(fp)
 8211d00:	e0bffd17 	ldw	r2,-12(fp)
 8211d04:	18800c26 	beq	r3,r2,8211d38 <alt_load_section+0x54>
 8211d08:	00000806 	br	8211d2c <alt_load_section+0x48>
 8211d0c:	e0bffe17 	ldw	r2,-8(fp)
 8211d10:	10c00104 	addi	r3,r2,4
 8211d14:	e0fffe15 	stw	r3,-8(fp)
 8211d18:	e0fffd17 	ldw	r3,-12(fp)
 8211d1c:	19000104 	addi	r4,r3,4
 8211d20:	e13ffd15 	stw	r4,-12(fp)
 8211d24:	18c00017 	ldw	r3,0(r3)
 8211d28:	10c00015 	stw	r3,0(r2)
 8211d2c:	e0fffe17 	ldw	r3,-8(fp)
 8211d30:	e0bfff17 	ldw	r2,-4(fp)
 8211d34:	18bff51e 	bne	r3,r2,8211d0c <__alt_data_end+0xffff1d0c>
 8211d38:	0001883a 	nop
 8211d3c:	e037883a 	mov	sp,fp
 8211d40:	df000017 	ldw	fp,0(sp)
 8211d44:	dec00104 	addi	sp,sp,4
 8211d48:	f800283a 	ret

08211d4c <alt_load>:
 8211d4c:	defffe04 	addi	sp,sp,-8
 8211d50:	dfc00115 	stw	ra,4(sp)
 8211d54:	df000015 	stw	fp,0(sp)
 8211d58:	d839883a 	mov	fp,sp
 8211d5c:	01820874 	movhi	r6,2081
 8211d60:	318b2b04 	addi	r6,r6,11436
 8211d64:	01420874 	movhi	r5,2081
 8211d68:	2949af04 	addi	r5,r5,9916
 8211d6c:	01020874 	movhi	r4,2081
 8211d70:	210b2b04 	addi	r4,r4,11436
 8211d74:	8211ce40 	call	8211ce4 <alt_load_section>
 8211d78:	01820874 	movhi	r6,2081
 8211d7c:	31808c04 	addi	r6,r6,560
 8211d80:	01420874 	movhi	r5,2081
 8211d84:	29400804 	addi	r5,r5,32
 8211d88:	01020874 	movhi	r4,2081
 8211d8c:	21000804 	addi	r4,r4,32
 8211d90:	8211ce40 	call	8211ce4 <alt_load_section>
 8211d94:	01820874 	movhi	r6,2081
 8211d98:	3189af04 	addi	r6,r6,9916
 8211d9c:	01420874 	movhi	r5,2081
 8211da0:	2949ab04 	addi	r5,r5,9900
 8211da4:	01020874 	movhi	r4,2081
 8211da8:	2109ab04 	addi	r4,r4,9900
 8211dac:	8211ce40 	call	8211ce4 <alt_load_section>
 8211db0:	82121240 	call	8212124 <alt_dcache_flush_all>
 8211db4:	82122300 	call	8212230 <alt_icache_flush_all>
 8211db8:	0001883a 	nop
 8211dbc:	e037883a 	mov	sp,fp
 8211dc0:	dfc00117 	ldw	ra,4(sp)
 8211dc4:	df000017 	ldw	fp,0(sp)
 8211dc8:	dec00204 	addi	sp,sp,8
 8211dcc:	f800283a 	ret

08211dd0 <alt_main>:
 8211dd0:	defffd04 	addi	sp,sp,-12
 8211dd4:	dfc00215 	stw	ra,8(sp)
 8211dd8:	df000115 	stw	fp,4(sp)
 8211ddc:	df000104 	addi	fp,sp,4
 8211de0:	0009883a 	mov	r4,zero
 8211de4:	8211e600 	call	8211e60 <alt_irq_init>
 8211de8:	0001883a 	nop
 8211dec:	8211e980 	call	8211e98 <alt_sys_init>
 8211df0:	82121700 	call	8212170 <_do_ctors>
 8211df4:	01020874 	movhi	r4,2081
 8211df8:	21087404 	addi	r4,r4,8656
 8211dfc:	82123940 	call	8212394 <atexit>
 8211e00:	d0a18b17 	ldw	r2,-31188(gp)
 8211e04:	d0e18c17 	ldw	r3,-31184(gp)
 8211e08:	d1218d17 	ldw	r4,-31180(gp)
 8211e0c:	200d883a 	mov	r6,r4
 8211e10:	180b883a 	mov	r5,r3
 8211e14:	1009883a 	mov	r4,r2
 8211e18:	8210e900 	call	8210e90 <main>
 8211e1c:	e0bfff15 	stw	r2,-4(fp)
 8211e20:	01000044 	movi	r4,1
 8211e24:	821204c0 	call	821204c <close>
 8211e28:	e13fff17 	ldw	r4,-4(fp)
 8211e2c:	82123a80 	call	82123a8 <exit>

08211e30 <usleep>:
 8211e30:	defffd04 	addi	sp,sp,-12
 8211e34:	dfc00215 	stw	ra,8(sp)
 8211e38:	df000115 	stw	fp,4(sp)
 8211e3c:	df000104 	addi	fp,sp,4
 8211e40:	e13fff15 	stw	r4,-4(fp)
 8211e44:	e13fff17 	ldw	r4,-4(fp)
 8211e48:	8211eb80 	call	8211eb8 <alt_busy_sleep>
 8211e4c:	e037883a 	mov	sp,fp
 8211e50:	dfc00117 	ldw	ra,4(sp)
 8211e54:	df000017 	ldw	fp,0(sp)
 8211e58:	dec00204 	addi	sp,sp,8
 8211e5c:	f800283a 	ret

08211e60 <alt_irq_init>:
 8211e60:	defffd04 	addi	sp,sp,-12
 8211e64:	dfc00215 	stw	ra,8(sp)
 8211e68:	df000115 	stw	fp,4(sp)
 8211e6c:	df000104 	addi	fp,sp,4
 8211e70:	e13fff15 	stw	r4,-4(fp)
 8211e74:	82122d40 	call	82122d4 <altera_nios2_gen2_irq_init>
 8211e78:	00800044 	movi	r2,1
 8211e7c:	1001703a 	wrctl	status,r2
 8211e80:	0001883a 	nop
 8211e84:	e037883a 	mov	sp,fp
 8211e88:	dfc00117 	ldw	ra,4(sp)
 8211e8c:	df000017 	ldw	fp,0(sp)
 8211e90:	dec00204 	addi	sp,sp,8
 8211e94:	f800283a 	ret

08211e98 <alt_sys_init>:
 8211e98:	deffff04 	addi	sp,sp,-4
 8211e9c:	df000015 	stw	fp,0(sp)
 8211ea0:	d839883a 	mov	fp,sp
 8211ea4:	0001883a 	nop
 8211ea8:	e037883a 	mov	sp,fp
 8211eac:	df000017 	ldw	fp,0(sp)
 8211eb0:	dec00104 	addi	sp,sp,4
 8211eb4:	f800283a 	ret

08211eb8 <alt_busy_sleep>:
 8211eb8:	defffa04 	addi	sp,sp,-24
 8211ebc:	dfc00515 	stw	ra,20(sp)
 8211ec0:	df000415 	stw	fp,16(sp)
 8211ec4:	df000404 	addi	fp,sp,16
 8211ec8:	e13fff15 	stw	r4,-4(fp)
 8211ecc:	00800244 	movi	r2,9
 8211ed0:	e0bffd15 	stw	r2,-12(fp)
 8211ed4:	014003f4 	movhi	r5,15
 8211ed8:	29509004 	addi	r5,r5,16960
 8211edc:	e13ffd17 	ldw	r4,-12(fp)
 8211ee0:	8211b3c0 	call	8211b3c <__mulsi3>
 8211ee4:	100b883a 	mov	r5,r2
 8211ee8:	01017db4 	movhi	r4,1526
 8211eec:	21384004 	addi	r4,r4,-7936
 8211ef0:	82118f80 	call	82118f8 <__udivsi3>
 8211ef4:	100b883a 	mov	r5,r2
 8211ef8:	01200034 	movhi	r4,32768
 8211efc:	213fffc4 	addi	r4,r4,-1
 8211f00:	82118f80 	call	82118f8 <__udivsi3>
 8211f04:	100b883a 	mov	r5,r2
 8211f08:	e13fff17 	ldw	r4,-4(fp)
 8211f0c:	82118f80 	call	82118f8 <__udivsi3>
 8211f10:	e0bffe15 	stw	r2,-8(fp)
 8211f14:	e0bffe17 	ldw	r2,-8(fp)
 8211f18:	10002a26 	beq	r2,zero,8211fc4 <alt_busy_sleep+0x10c>
 8211f1c:	e03ffc15 	stw	zero,-16(fp)
 8211f20:	00001706 	br	8211f80 <alt_busy_sleep+0xc8>
 8211f24:	00a00034 	movhi	r2,32768
 8211f28:	10bfffc4 	addi	r2,r2,-1
 8211f2c:	10bfffc4 	addi	r2,r2,-1
 8211f30:	103ffe1e 	bne	r2,zero,8211f2c <__alt_data_end+0xffff1f2c>
 8211f34:	014003f4 	movhi	r5,15
 8211f38:	29509004 	addi	r5,r5,16960
 8211f3c:	e13ffd17 	ldw	r4,-12(fp)
 8211f40:	8211b3c0 	call	8211b3c <__mulsi3>
 8211f44:	100b883a 	mov	r5,r2
 8211f48:	01017db4 	movhi	r4,1526
 8211f4c:	21384004 	addi	r4,r4,-7936
 8211f50:	82118f80 	call	82118f8 <__udivsi3>
 8211f54:	100b883a 	mov	r5,r2
 8211f58:	01200034 	movhi	r4,32768
 8211f5c:	213fffc4 	addi	r4,r4,-1
 8211f60:	82118f80 	call	82118f8 <__udivsi3>
 8211f64:	1007883a 	mov	r3,r2
 8211f68:	e0bfff17 	ldw	r2,-4(fp)
 8211f6c:	10c5c83a 	sub	r2,r2,r3
 8211f70:	e0bfff15 	stw	r2,-4(fp)
 8211f74:	e0bffc17 	ldw	r2,-16(fp)
 8211f78:	10800044 	addi	r2,r2,1
 8211f7c:	e0bffc15 	stw	r2,-16(fp)
 8211f80:	e0fffc17 	ldw	r3,-16(fp)
 8211f84:	e0bffe17 	ldw	r2,-8(fp)
 8211f88:	18bfe616 	blt	r3,r2,8211f24 <__alt_data_end+0xffff1f24>
 8211f8c:	014003f4 	movhi	r5,15
 8211f90:	29509004 	addi	r5,r5,16960
 8211f94:	e13ffd17 	ldw	r4,-12(fp)
 8211f98:	8211b3c0 	call	8211b3c <__mulsi3>
 8211f9c:	100b883a 	mov	r5,r2
 8211fa0:	01017db4 	movhi	r4,1526
 8211fa4:	21384004 	addi	r4,r4,-7936
 8211fa8:	82118f80 	call	82118f8 <__udivsi3>
 8211fac:	e17fff17 	ldw	r5,-4(fp)
 8211fb0:	1009883a 	mov	r4,r2
 8211fb4:	8211b3c0 	call	8211b3c <__mulsi3>
 8211fb8:	10bfffc4 	addi	r2,r2,-1
 8211fbc:	103ffe1e 	bne	r2,zero,8211fb8 <__alt_data_end+0xffff1fb8>
 8211fc0:	00000d06 	br	8211ff8 <alt_busy_sleep+0x140>
 8211fc4:	014003f4 	movhi	r5,15
 8211fc8:	29509004 	addi	r5,r5,16960
 8211fcc:	e13ffd17 	ldw	r4,-12(fp)
 8211fd0:	8211b3c0 	call	8211b3c <__mulsi3>
 8211fd4:	100b883a 	mov	r5,r2
 8211fd8:	01017db4 	movhi	r4,1526
 8211fdc:	21384004 	addi	r4,r4,-7936
 8211fe0:	82118f80 	call	82118f8 <__udivsi3>
 8211fe4:	e17fff17 	ldw	r5,-4(fp)
 8211fe8:	1009883a 	mov	r4,r2
 8211fec:	8211b3c0 	call	8211b3c <__mulsi3>
 8211ff0:	10bfffc4 	addi	r2,r2,-1
 8211ff4:	00bffe16 	blt	zero,r2,8211ff0 <__alt_data_end+0xffff1ff0>
 8211ff8:	0005883a 	mov	r2,zero
 8211ffc:	e037883a 	mov	sp,fp
 8212000:	dfc00117 	ldw	ra,4(sp)
 8212004:	df000017 	ldw	fp,0(sp)
 8212008:	dec00204 	addi	sp,sp,8
 821200c:	f800283a 	ret

08212010 <alt_get_errno>:
 8212010:	defffe04 	addi	sp,sp,-8
 8212014:	dfc00115 	stw	ra,4(sp)
 8212018:	df000015 	stw	fp,0(sp)
 821201c:	d839883a 	mov	fp,sp
 8212020:	d0a00817 	ldw	r2,-32736(gp)
 8212024:	10000326 	beq	r2,zero,8212034 <alt_get_errno+0x24>
 8212028:	d0a00817 	ldw	r2,-32736(gp)
 821202c:	103ee83a 	callr	r2
 8212030:	00000106 	br	8212038 <alt_get_errno+0x28>
 8212034:	d0a18f04 	addi	r2,gp,-31172
 8212038:	e037883a 	mov	sp,fp
 821203c:	dfc00117 	ldw	ra,4(sp)
 8212040:	df000017 	ldw	fp,0(sp)
 8212044:	dec00204 	addi	sp,sp,8
 8212048:	f800283a 	ret

0821204c <close>:
 821204c:	defffb04 	addi	sp,sp,-20
 8212050:	dfc00415 	stw	ra,16(sp)
 8212054:	df000315 	stw	fp,12(sp)
 8212058:	df000304 	addi	fp,sp,12
 821205c:	e13fff15 	stw	r4,-4(fp)
 8212060:	e0bfff17 	ldw	r2,-4(fp)
 8212064:	10000816 	blt	r2,zero,8212088 <close+0x3c>
 8212068:	01400304 	movi	r5,12
 821206c:	e13fff17 	ldw	r4,-4(fp)
 8212070:	8211b3c0 	call	8211b3c <__mulsi3>
 8212074:	1007883a 	mov	r3,r2
 8212078:	00820874 	movhi	r2,2081
 821207c:	108ac204 	addi	r2,r2,11016
 8212080:	1885883a 	add	r2,r3,r2
 8212084:	00000106 	br	821208c <close+0x40>
 8212088:	0005883a 	mov	r2,zero
 821208c:	e0bffd15 	stw	r2,-12(fp)
 8212090:	e0bffd17 	ldw	r2,-12(fp)
 8212094:	10001926 	beq	r2,zero,82120fc <close+0xb0>
 8212098:	e0bffd17 	ldw	r2,-12(fp)
 821209c:	10800017 	ldw	r2,0(r2)
 82120a0:	10800417 	ldw	r2,16(r2)
 82120a4:	10000626 	beq	r2,zero,82120c0 <close+0x74>
 82120a8:	e0bffd17 	ldw	r2,-12(fp)
 82120ac:	10800017 	ldw	r2,0(r2)
 82120b0:	10800417 	ldw	r2,16(r2)
 82120b4:	e13ffd17 	ldw	r4,-12(fp)
 82120b8:	103ee83a 	callr	r2
 82120bc:	00000106 	br	82120c4 <close+0x78>
 82120c0:	0005883a 	mov	r2,zero
 82120c4:	e0bffe15 	stw	r2,-8(fp)
 82120c8:	e13fff17 	ldw	r4,-4(fp)
 82120cc:	82122500 	call	8212250 <alt_release_fd>
 82120d0:	e0bffe17 	ldw	r2,-8(fp)
 82120d4:	1000070e 	bge	r2,zero,82120f4 <close+0xa8>
 82120d8:	82120100 	call	8212010 <alt_get_errno>
 82120dc:	1007883a 	mov	r3,r2
 82120e0:	e0bffe17 	ldw	r2,-8(fp)
 82120e4:	0085c83a 	sub	r2,zero,r2
 82120e8:	18800015 	stw	r2,0(r3)
 82120ec:	00bfffc4 	movi	r2,-1
 82120f0:	00000706 	br	8212110 <close+0xc4>
 82120f4:	0005883a 	mov	r2,zero
 82120f8:	00000506 	br	8212110 <close+0xc4>
 82120fc:	82120100 	call	8212010 <alt_get_errno>
 8212100:	1007883a 	mov	r3,r2
 8212104:	00801444 	movi	r2,81
 8212108:	18800015 	stw	r2,0(r3)
 821210c:	00bfffc4 	movi	r2,-1
 8212110:	e037883a 	mov	sp,fp
 8212114:	dfc00117 	ldw	ra,4(sp)
 8212118:	df000017 	ldw	fp,0(sp)
 821211c:	dec00204 	addi	sp,sp,8
 8212120:	f800283a 	ret

08212124 <alt_dcache_flush_all>:
 8212124:	deffff04 	addi	sp,sp,-4
 8212128:	df000015 	stw	fp,0(sp)
 821212c:	d839883a 	mov	fp,sp
 8212130:	0001883a 	nop
 8212134:	e037883a 	mov	sp,fp
 8212138:	df000017 	ldw	fp,0(sp)
 821213c:	dec00104 	addi	sp,sp,4
 8212140:	f800283a 	ret

08212144 <alt_dev_null_write>:
 8212144:	defffc04 	addi	sp,sp,-16
 8212148:	df000315 	stw	fp,12(sp)
 821214c:	df000304 	addi	fp,sp,12
 8212150:	e13ffd15 	stw	r4,-12(fp)
 8212154:	e17ffe15 	stw	r5,-8(fp)
 8212158:	e1bfff15 	stw	r6,-4(fp)
 821215c:	e0bfff17 	ldw	r2,-4(fp)
 8212160:	e037883a 	mov	sp,fp
 8212164:	df000017 	ldw	fp,0(sp)
 8212168:	dec00104 	addi	sp,sp,4
 821216c:	f800283a 	ret

08212170 <_do_ctors>:
 8212170:	defffd04 	addi	sp,sp,-12
 8212174:	dfc00215 	stw	ra,8(sp)
 8212178:	df000115 	stw	fp,4(sp)
 821217c:	df000104 	addi	fp,sp,4
 8212180:	00820874 	movhi	r2,2081
 8212184:	1089aa04 	addi	r2,r2,9896
 8212188:	e0bfff15 	stw	r2,-4(fp)
 821218c:	00000606 	br	82121a8 <_do_ctors+0x38>
 8212190:	e0bfff17 	ldw	r2,-4(fp)
 8212194:	10800017 	ldw	r2,0(r2)
 8212198:	103ee83a 	callr	r2
 821219c:	e0bfff17 	ldw	r2,-4(fp)
 82121a0:	10bfff04 	addi	r2,r2,-4
 82121a4:	e0bfff15 	stw	r2,-4(fp)
 82121a8:	e0ffff17 	ldw	r3,-4(fp)
 82121ac:	00820874 	movhi	r2,2081
 82121b0:	1089ab04 	addi	r2,r2,9900
 82121b4:	18bff62e 	bgeu	r3,r2,8212190 <__alt_data_end+0xffff2190>
 82121b8:	0001883a 	nop
 82121bc:	e037883a 	mov	sp,fp
 82121c0:	dfc00117 	ldw	ra,4(sp)
 82121c4:	df000017 	ldw	fp,0(sp)
 82121c8:	dec00204 	addi	sp,sp,8
 82121cc:	f800283a 	ret

082121d0 <_do_dtors>:
 82121d0:	defffd04 	addi	sp,sp,-12
 82121d4:	dfc00215 	stw	ra,8(sp)
 82121d8:	df000115 	stw	fp,4(sp)
 82121dc:	df000104 	addi	fp,sp,4
 82121e0:	00820874 	movhi	r2,2081
 82121e4:	1089aa04 	addi	r2,r2,9896
 82121e8:	e0bfff15 	stw	r2,-4(fp)
 82121ec:	00000606 	br	8212208 <_do_dtors+0x38>
 82121f0:	e0bfff17 	ldw	r2,-4(fp)
 82121f4:	10800017 	ldw	r2,0(r2)
 82121f8:	103ee83a 	callr	r2
 82121fc:	e0bfff17 	ldw	r2,-4(fp)
 8212200:	10bfff04 	addi	r2,r2,-4
 8212204:	e0bfff15 	stw	r2,-4(fp)
 8212208:	e0ffff17 	ldw	r3,-4(fp)
 821220c:	00820874 	movhi	r2,2081
 8212210:	1089ab04 	addi	r2,r2,9900
 8212214:	18bff62e 	bgeu	r3,r2,82121f0 <__alt_data_end+0xffff21f0>
 8212218:	0001883a 	nop
 821221c:	e037883a 	mov	sp,fp
 8212220:	dfc00117 	ldw	ra,4(sp)
 8212224:	df000017 	ldw	fp,0(sp)
 8212228:	dec00204 	addi	sp,sp,8
 821222c:	f800283a 	ret

08212230 <alt_icache_flush_all>:
 8212230:	deffff04 	addi	sp,sp,-4
 8212234:	df000015 	stw	fp,0(sp)
 8212238:	d839883a 	mov	fp,sp
 821223c:	0001883a 	nop
 8212240:	e037883a 	mov	sp,fp
 8212244:	df000017 	ldw	fp,0(sp)
 8212248:	dec00104 	addi	sp,sp,4
 821224c:	f800283a 	ret

08212250 <alt_release_fd>:
 8212250:	defffc04 	addi	sp,sp,-16
 8212254:	dfc00315 	stw	ra,12(sp)
 8212258:	df000215 	stw	fp,8(sp)
 821225c:	dc000115 	stw	r16,4(sp)
 8212260:	df000204 	addi	fp,sp,8
 8212264:	e13ffe15 	stw	r4,-8(fp)
 8212268:	e0bffe17 	ldw	r2,-8(fp)
 821226c:	108000d0 	cmplti	r2,r2,3
 8212270:	1000111e 	bne	r2,zero,82122b8 <alt_release_fd+0x68>
 8212274:	04020874 	movhi	r16,2081
 8212278:	840ac204 	addi	r16,r16,11016
 821227c:	e0bffe17 	ldw	r2,-8(fp)
 8212280:	01400304 	movi	r5,12
 8212284:	1009883a 	mov	r4,r2
 8212288:	8211b3c0 	call	8211b3c <__mulsi3>
 821228c:	8085883a 	add	r2,r16,r2
 8212290:	10800204 	addi	r2,r2,8
 8212294:	10000015 	stw	zero,0(r2)
 8212298:	04020874 	movhi	r16,2081
 821229c:	840ac204 	addi	r16,r16,11016
 82122a0:	e0bffe17 	ldw	r2,-8(fp)
 82122a4:	01400304 	movi	r5,12
 82122a8:	1009883a 	mov	r4,r2
 82122ac:	8211b3c0 	call	8211b3c <__mulsi3>
 82122b0:	8085883a 	add	r2,r16,r2
 82122b4:	10000015 	stw	zero,0(r2)
 82122b8:	0001883a 	nop
 82122bc:	e6ffff04 	addi	sp,fp,-4
 82122c0:	dfc00217 	ldw	ra,8(sp)
 82122c4:	df000117 	ldw	fp,4(sp)
 82122c8:	dc000017 	ldw	r16,0(sp)
 82122cc:	dec00304 	addi	sp,sp,12
 82122d0:	f800283a 	ret

082122d4 <altera_nios2_gen2_irq_init>:
 82122d4:	deffff04 	addi	sp,sp,-4
 82122d8:	df000015 	stw	fp,0(sp)
 82122dc:	d839883a 	mov	fp,sp
 82122e0:	000170fa 	wrctl	ienable,zero
 82122e4:	0001883a 	nop
 82122e8:	e037883a 	mov	sp,fp
 82122ec:	df000017 	ldw	fp,0(sp)
 82122f0:	dec00104 	addi	sp,sp,4
 82122f4:	f800283a 	ret

082122f8 <alt_exception_cause_generated_bad_addr>:
 82122f8:	defffe04 	addi	sp,sp,-8
 82122fc:	df000115 	stw	fp,4(sp)
 8212300:	df000104 	addi	fp,sp,4
 8212304:	e13fff15 	stw	r4,-4(fp)
 8212308:	e0bfff17 	ldw	r2,-4(fp)
 821230c:	10bffe84 	addi	r2,r2,-6
 8212310:	10c00428 	cmpgeui	r3,r2,16
 8212314:	18001a1e 	bne	r3,zero,8212380 <alt_exception_cause_generated_bad_addr+0x88>
 8212318:	100690ba 	slli	r3,r2,2
 821231c:	00820874 	movhi	r2,2081
 8212320:	1088cc04 	addi	r2,r2,9008
 8212324:	1885883a 	add	r2,r3,r2
 8212328:	10800017 	ldw	r2,0(r2)
 821232c:	1000683a 	jmp	r2
 8212330:	08212370 	cmpltui	zero,at,33933
 8212334:	08212370 	cmpltui	zero,at,33933
 8212338:	08212380 	call	821238 <__alt_mem_ram_data-0x79eedc8>
 821233c:	08212380 	call	821238 <__alt_mem_ram_data-0x79eedc8>
 8212340:	08212380 	call	821238 <__alt_mem_ram_data-0x79eedc8>
 8212344:	08212370 	cmpltui	zero,at,33933
 8212348:	08212378 	rdprs	zero,at,-31603
 821234c:	08212380 	call	821238 <__alt_mem_ram_data-0x79eedc8>
 8212350:	08212370 	cmpltui	zero,at,33933
 8212354:	08212370 	cmpltui	zero,at,33933
 8212358:	08212380 	call	821238 <__alt_mem_ram_data-0x79eedc8>
 821235c:	08212370 	cmpltui	zero,at,33933
 8212360:	08212378 	rdprs	zero,at,-31603
 8212364:	08212380 	call	821238 <__alt_mem_ram_data-0x79eedc8>
 8212368:	08212380 	call	821238 <__alt_mem_ram_data-0x79eedc8>
 821236c:	08212370 	cmpltui	zero,at,33933
 8212370:	00800044 	movi	r2,1
 8212374:	00000306 	br	8212384 <alt_exception_cause_generated_bad_addr+0x8c>
 8212378:	0005883a 	mov	r2,zero
 821237c:	00000106 	br	8212384 <alt_exception_cause_generated_bad_addr+0x8c>
 8212380:	0005883a 	mov	r2,zero
 8212384:	e037883a 	mov	sp,fp
 8212388:	df000017 	ldw	fp,0(sp)
 821238c:	dec00104 	addi	sp,sp,4
 8212390:	f800283a 	ret

08212394 <atexit>:
 8212394:	200b883a 	mov	r5,r4
 8212398:	000f883a 	mov	r7,zero
 821239c:	000d883a 	mov	r6,zero
 82123a0:	0009883a 	mov	r4,zero
 82123a4:	82123e01 	jmpi	82123e0 <__register_exitproc>

082123a8 <exit>:
 82123a8:	defffe04 	addi	sp,sp,-8
 82123ac:	000b883a 	mov	r5,zero
 82123b0:	dc000015 	stw	r16,0(sp)
 82123b4:	dfc00115 	stw	ra,4(sp)
 82123b8:	2021883a 	mov	r16,r4
 82123bc:	82124f80 	call	82124f8 <__call_exitprocs>
 82123c0:	00820874 	movhi	r2,2081
 82123c4:	108b2204 	addi	r2,r2,11400
 82123c8:	11000017 	ldw	r4,0(r2)
 82123cc:	20800f17 	ldw	r2,60(r4)
 82123d0:	10000126 	beq	r2,zero,82123d8 <exit+0x30>
 82123d4:	103ee83a 	callr	r2
 82123d8:	8009883a 	mov	r4,r16
 82123dc:	82126780 	call	8212678 <_exit>

082123e0 <__register_exitproc>:
 82123e0:	defffa04 	addi	sp,sp,-24
 82123e4:	dc000315 	stw	r16,12(sp)
 82123e8:	04020874 	movhi	r16,2081
 82123ec:	840b2204 	addi	r16,r16,11400
 82123f0:	80c00017 	ldw	r3,0(r16)
 82123f4:	dc400415 	stw	r17,16(sp)
 82123f8:	dfc00515 	stw	ra,20(sp)
 82123fc:	18805217 	ldw	r2,328(r3)
 8212400:	2023883a 	mov	r17,r4
 8212404:	10003726 	beq	r2,zero,82124e4 <__register_exitproc+0x104>
 8212408:	10c00117 	ldw	r3,4(r2)
 821240c:	010007c4 	movi	r4,31
 8212410:	20c00e16 	blt	r4,r3,821244c <__register_exitproc+0x6c>
 8212414:	1a000044 	addi	r8,r3,1
 8212418:	8800221e 	bne	r17,zero,82124a4 <__register_exitproc+0xc4>
 821241c:	18c00084 	addi	r3,r3,2
 8212420:	18c7883a 	add	r3,r3,r3
 8212424:	18c7883a 	add	r3,r3,r3
 8212428:	12000115 	stw	r8,4(r2)
 821242c:	10c7883a 	add	r3,r2,r3
 8212430:	19400015 	stw	r5,0(r3)
 8212434:	0005883a 	mov	r2,zero
 8212438:	dfc00517 	ldw	ra,20(sp)
 821243c:	dc400417 	ldw	r17,16(sp)
 8212440:	dc000317 	ldw	r16,12(sp)
 8212444:	dec00604 	addi	sp,sp,24
 8212448:	f800283a 	ret
 821244c:	00800034 	movhi	r2,0
 8212450:	10800004 	addi	r2,r2,0
 8212454:	10002626 	beq	r2,zero,82124f0 <__register_exitproc+0x110>
 8212458:	01006404 	movi	r4,400
 821245c:	d9400015 	stw	r5,0(sp)
 8212460:	d9800115 	stw	r6,4(sp)
 8212464:	d9c00215 	stw	r7,8(sp)
 8212468:	00000000 	call	0 <__alt_mem_ram_data-0x8210000>
 821246c:	d9400017 	ldw	r5,0(sp)
 8212470:	d9800117 	ldw	r6,4(sp)
 8212474:	d9c00217 	ldw	r7,8(sp)
 8212478:	10001d26 	beq	r2,zero,82124f0 <__register_exitproc+0x110>
 821247c:	81000017 	ldw	r4,0(r16)
 8212480:	10000115 	stw	zero,4(r2)
 8212484:	02000044 	movi	r8,1
 8212488:	22405217 	ldw	r9,328(r4)
 821248c:	0007883a 	mov	r3,zero
 8212490:	12400015 	stw	r9,0(r2)
 8212494:	20805215 	stw	r2,328(r4)
 8212498:	10006215 	stw	zero,392(r2)
 821249c:	10006315 	stw	zero,396(r2)
 82124a0:	883fde26 	beq	r17,zero,821241c <__alt_data_end+0xffff241c>
 82124a4:	18c9883a 	add	r4,r3,r3
 82124a8:	2109883a 	add	r4,r4,r4
 82124ac:	1109883a 	add	r4,r2,r4
 82124b0:	21802215 	stw	r6,136(r4)
 82124b4:	01800044 	movi	r6,1
 82124b8:	12406217 	ldw	r9,392(r2)
 82124bc:	30cc983a 	sll	r6,r6,r3
 82124c0:	4992b03a 	or	r9,r9,r6
 82124c4:	12406215 	stw	r9,392(r2)
 82124c8:	21c04215 	stw	r7,264(r4)
 82124cc:	01000084 	movi	r4,2
 82124d0:	893fd21e 	bne	r17,r4,821241c <__alt_data_end+0xffff241c>
 82124d4:	11006317 	ldw	r4,396(r2)
 82124d8:	218cb03a 	or	r6,r4,r6
 82124dc:	11806315 	stw	r6,396(r2)
 82124e0:	003fce06 	br	821241c <__alt_data_end+0xffff241c>
 82124e4:	18805304 	addi	r2,r3,332
 82124e8:	18805215 	stw	r2,328(r3)
 82124ec:	003fc606 	br	8212408 <__alt_data_end+0xffff2408>
 82124f0:	00bfffc4 	movi	r2,-1
 82124f4:	003fd006 	br	8212438 <__alt_data_end+0xffff2438>

082124f8 <__call_exitprocs>:
 82124f8:	defff504 	addi	sp,sp,-44
 82124fc:	df000915 	stw	fp,36(sp)
 8212500:	dd400615 	stw	r21,24(sp)
 8212504:	dc800315 	stw	r18,12(sp)
 8212508:	dfc00a15 	stw	ra,40(sp)
 821250c:	ddc00815 	stw	r23,32(sp)
 8212510:	dd800715 	stw	r22,28(sp)
 8212514:	dd000515 	stw	r20,20(sp)
 8212518:	dcc00415 	stw	r19,16(sp)
 821251c:	dc400215 	stw	r17,8(sp)
 8212520:	dc000115 	stw	r16,4(sp)
 8212524:	d9000015 	stw	r4,0(sp)
 8212528:	2839883a 	mov	fp,r5
 821252c:	04800044 	movi	r18,1
 8212530:	057fffc4 	movi	r21,-1
 8212534:	00820874 	movhi	r2,2081
 8212538:	108b2204 	addi	r2,r2,11400
 821253c:	12000017 	ldw	r8,0(r2)
 8212540:	45005217 	ldw	r20,328(r8)
 8212544:	44c05204 	addi	r19,r8,328
 8212548:	a0001c26 	beq	r20,zero,82125bc <__call_exitprocs+0xc4>
 821254c:	a0800117 	ldw	r2,4(r20)
 8212550:	15ffffc4 	addi	r23,r2,-1
 8212554:	b8000d16 	blt	r23,zero,821258c <__call_exitprocs+0x94>
 8212558:	14000044 	addi	r16,r2,1
 821255c:	8421883a 	add	r16,r16,r16
 8212560:	8421883a 	add	r16,r16,r16
 8212564:	84402004 	addi	r17,r16,128
 8212568:	a463883a 	add	r17,r20,r17
 821256c:	a421883a 	add	r16,r20,r16
 8212570:	e0001e26 	beq	fp,zero,82125ec <__call_exitprocs+0xf4>
 8212574:	80804017 	ldw	r2,256(r16)
 8212578:	e0801c26 	beq	fp,r2,82125ec <__call_exitprocs+0xf4>
 821257c:	bdffffc4 	addi	r23,r23,-1
 8212580:	843fff04 	addi	r16,r16,-4
 8212584:	8c7fff04 	addi	r17,r17,-4
 8212588:	bd7ff91e 	bne	r23,r21,8212570 <__alt_data_end+0xffff2570>
 821258c:	00800034 	movhi	r2,0
 8212590:	10800004 	addi	r2,r2,0
 8212594:	10000926 	beq	r2,zero,82125bc <__call_exitprocs+0xc4>
 8212598:	a0800117 	ldw	r2,4(r20)
 821259c:	1000301e 	bne	r2,zero,8212660 <__call_exitprocs+0x168>
 82125a0:	a0800017 	ldw	r2,0(r20)
 82125a4:	10003226 	beq	r2,zero,8212670 <__call_exitprocs+0x178>
 82125a8:	a009883a 	mov	r4,r20
 82125ac:	98800015 	stw	r2,0(r19)
 82125b0:	00000000 	call	0 <__alt_mem_ram_data-0x8210000>
 82125b4:	9d000017 	ldw	r20,0(r19)
 82125b8:	a03fe41e 	bne	r20,zero,821254c <__alt_data_end+0xffff254c>
 82125bc:	dfc00a17 	ldw	ra,40(sp)
 82125c0:	df000917 	ldw	fp,36(sp)
 82125c4:	ddc00817 	ldw	r23,32(sp)
 82125c8:	dd800717 	ldw	r22,28(sp)
 82125cc:	dd400617 	ldw	r21,24(sp)
 82125d0:	dd000517 	ldw	r20,20(sp)
 82125d4:	dcc00417 	ldw	r19,16(sp)
 82125d8:	dc800317 	ldw	r18,12(sp)
 82125dc:	dc400217 	ldw	r17,8(sp)
 82125e0:	dc000117 	ldw	r16,4(sp)
 82125e4:	dec00b04 	addi	sp,sp,44
 82125e8:	f800283a 	ret
 82125ec:	a0800117 	ldw	r2,4(r20)
 82125f0:	80c00017 	ldw	r3,0(r16)
 82125f4:	10bfffc4 	addi	r2,r2,-1
 82125f8:	15c01426 	beq	r2,r23,821264c <__call_exitprocs+0x154>
 82125fc:	80000015 	stw	zero,0(r16)
 8212600:	183fde26 	beq	r3,zero,821257c <__alt_data_end+0xffff257c>
 8212604:	95c8983a 	sll	r4,r18,r23
 8212608:	a0806217 	ldw	r2,392(r20)
 821260c:	a5800117 	ldw	r22,4(r20)
 8212610:	2084703a 	and	r2,r4,r2
 8212614:	10000b26 	beq	r2,zero,8212644 <__call_exitprocs+0x14c>
 8212618:	a0806317 	ldw	r2,396(r20)
 821261c:	2088703a 	and	r4,r4,r2
 8212620:	20000c1e 	bne	r4,zero,8212654 <__call_exitprocs+0x15c>
 8212624:	89400017 	ldw	r5,0(r17)
 8212628:	d9000017 	ldw	r4,0(sp)
 821262c:	183ee83a 	callr	r3
 8212630:	a0800117 	ldw	r2,4(r20)
 8212634:	15bfbf1e 	bne	r2,r22,8212534 <__alt_data_end+0xffff2534>
 8212638:	98800017 	ldw	r2,0(r19)
 821263c:	153fcf26 	beq	r2,r20,821257c <__alt_data_end+0xffff257c>
 8212640:	003fbc06 	br	8212534 <__alt_data_end+0xffff2534>
 8212644:	183ee83a 	callr	r3
 8212648:	003ff906 	br	8212630 <__alt_data_end+0xffff2630>
 821264c:	a5c00115 	stw	r23,4(r20)
 8212650:	003feb06 	br	8212600 <__alt_data_end+0xffff2600>
 8212654:	89000017 	ldw	r4,0(r17)
 8212658:	183ee83a 	callr	r3
 821265c:	003ff406 	br	8212630 <__alt_data_end+0xffff2630>
 8212660:	a0800017 	ldw	r2,0(r20)
 8212664:	a027883a 	mov	r19,r20
 8212668:	1029883a 	mov	r20,r2
 821266c:	003fb606 	br	8212548 <__alt_data_end+0xffff2548>
 8212670:	0005883a 	mov	r2,zero
 8212674:	003ffb06 	br	8212664 <__alt_data_end+0xffff2664>

08212678 <_exit>:
 8212678:	defffd04 	addi	sp,sp,-12
 821267c:	df000215 	stw	fp,8(sp)
 8212680:	df000204 	addi	fp,sp,8
 8212684:	e13fff15 	stw	r4,-4(fp)
 8212688:	0001883a 	nop
 821268c:	e0bfff17 	ldw	r2,-4(fp)
 8212690:	e0bffe15 	stw	r2,-8(fp)
 8212694:	e0bffe17 	ldw	r2,-8(fp)
 8212698:	10000226 	beq	r2,zero,82126a4 <_exit+0x2c>
 821269c:	002af070 	cmpltui	zero,zero,43969
 82126a0:	00000106 	br	82126a8 <_exit+0x30>
 82126a4:	002af0b0 	cmpltui	zero,zero,43970
 82126a8:	003fff06 	br	82126a8 <__alt_data_end+0xffff26a8>
